
/Users/heath/Documents/workspace/Connected-Oldtimer/ConnectedOldtimerCode/target/ConnectedOldtimerCode.elf:     file format elf32-littlearm

Sections:
Idx Name          Size      VMA       LMA       File off  Algn
  0 .module_info  00000018  08080000  08080000  00010000  2**2
                  CONTENTS, ALLOC, LOAD, READONLY, DATA
  1 .text         00002a28  08080018  08080018  00010018  2**3
                  CONTENTS, ALLOC, LOAD, READONLY, CODE
  2 .backup       00000004  40024000  08082a40  00014000  2**2
                  CONTENTS, ALLOC, LOAD, DATA
  3 .data         00000070  20000400  08082a44  00020400  2**2
                  CONTENTS, ALLOC, LOAD, DATA
  4 .bss          000008f8  20000470  20000470  00030470  2**3
                  ALLOC
  5 .module_info_suffix 00000028  08082ab4  08082ab4  00022ab4  2**0
                  CONTENTS, ALLOC, LOAD, READONLY, DATA
  6 .module_info_crc 00000004  08082adc  08082adc  00022adc  2**0
                  CONTENTS, ALLOC, LOAD, READONLY, DATA
  7 .debug_info   0008ab44  00000000  00000000  00022ae0  2**0
                  CONTENTS, READONLY, DEBUGGING
  8 .debug_abbrev 0000d5ae  00000000  00000000  000ad624  2**0
                  CONTENTS, READONLY, DEBUGGING
  9 .debug_loc    0000ffd1  00000000  00000000  000babd2  2**0
                  CONTENTS, READONLY, DEBUGGING
 10 .debug_aranges 00001aa0  00000000  00000000  000caba3  2**0
                  CONTENTS, READONLY, DEBUGGING
 11 .debug_ranges 00002b78  00000000  00000000  000cc643  2**0
                  CONTENTS, READONLY, DEBUGGING
 12 .debug_macro  00022ed5  00000000  00000000  000cf1bb  2**0
                  CONTENTS, READONLY, DEBUGGING
 13 .debug_line   0001e9f7  00000000  00000000  000f2090  2**0
                  CONTENTS, READONLY, DEBUGGING
 14 .debug_str    000965c8  00000000  00000000  00110a87  2**0
                  CONTENTS, READONLY, DEBUGGING
 15 .debug_frame  0000aad0  00000000  00000000  001a7050  2**2
                  CONTENTS, READONLY, DEBUGGING

Disassembly of section .text:

08080018 <user_part_module>:
 8080018:	50 26 08 08                                         P&..

0808001c <module_user_pre_init>:
/**
 * Initializes this user module. Returns the start of the heap.
 */
void* module_user_pre_init() {

    if ( (&link_global_data_start!=&link_global_data_initial_values) && (link_global_data_size != 0))
 808001c:	4809      	ldr	r0, [pc, #36]	; (8080044 <module_user_pre_init+0x28>)
 808001e:	490a      	ldr	r1, [pc, #40]	; (8080048 <module_user_pre_init+0x2c>)
extern constructor_ptr_t link_constructors_end;

/**
 * Initializes this user module. Returns the start of the heap.
 */
void* module_user_pre_init() {
 8080020:	b508      	push	{r3, lr}

    if ( (&link_global_data_start!=&link_global_data_initial_values) && (link_global_data_size != 0))
 8080022:	4288      	cmp	r0, r1
 8080024:	d005      	beq.n	8080032 <module_user_pre_init+0x16>
 8080026:	4a09      	ldr	r2, [pc, #36]	; (808004c <module_user_pre_init+0x30>)
 8080028:	4282      	cmp	r2, r0
 808002a:	d002      	beq.n	8080032 <module_user_pre_init+0x16>
    {
        memcpy(&link_global_data_start, &link_global_data_initial_values, link_global_data_size);
 808002c:	1a12      	subs	r2, r2, r0
 808002e:	f002 fa15 	bl	808245c <memcpy>
    }

    memset(&link_bss_location, 0, link_bss_size );
 8080032:	4807      	ldr	r0, [pc, #28]	; (8080050 <module_user_pre_init+0x34>)
 8080034:	4a07      	ldr	r2, [pc, #28]	; (8080054 <module_user_pre_init+0x38>)
 8080036:	2100      	movs	r1, #0
 8080038:	1a12      	subs	r2, r2, r0
 808003a:	f002 fa1a 	bl	8082472 <memset>
    return &link_heap_start;
}
 808003e:	4806      	ldr	r0, [pc, #24]	; (8080058 <module_user_pre_init+0x3c>)
 8080040:	bd08      	pop	{r3, pc}
 8080042:	bf00      	nop
 8080044:	20000400 	.word	0x20000400
 8080048:	08082a44 	.word	0x08082a44
 808004c:	20000470 	.word	0x20000470
 8080050:	20000470 	.word	0x20000470
 8080054:	20000d68 	.word	0x20000d68
 8080058:	20000d68 	.word	0x20000d68

0808005c <module_user_init>:
extern constructor_ptr_t link_constructors_location[];
extern constructor_ptr_t link_constructors_end;
#define link_constructors_size   ((unsigned long)&link_constructors_end  -  (unsigned long)&link_constructors_location )

void module_user_init()
{
 808005c:	b570      	push	{r4, r5, r6, lr}
    module_user_init_hook();
 808005e:	f001 fb0d 	bl	808167c <module_user_init_hook>
 8080062:	4b07      	ldr	r3, [pc, #28]	; (8080080 <module_user_init+0x24>)
 8080064:	4c07      	ldr	r4, [pc, #28]	; (8080084 <module_user_init+0x28>)
 8080066:	461e      	mov	r6, r3
 8080068:	1ae4      	subs	r4, r4, r3
 808006a:	08a4      	lsrs	r4, r4, #2

    // invoke constructors
    int ctor_num;
    for (ctor_num=0; ctor_num < link_constructors_size/sizeof(constructor_ptr_t); ctor_num++ )
 808006c:	2500      	movs	r5, #0
 808006e:	42a5      	cmp	r5, r4
 8080070:	d004      	beq.n	808007c <module_user_init+0x20>
    {
        link_constructors_location[ctor_num]();
 8080072:	f856 3025 	ldr.w	r3, [r6, r5, lsl #2]
 8080076:	4798      	blx	r3
{
    module_user_init_hook();

    // invoke constructors
    int ctor_num;
    for (ctor_num=0; ctor_num < link_constructors_size/sizeof(constructor_ptr_t); ctor_num++ )
 8080078:	3501      	adds	r5, #1
 808007a:	e7f8      	b.n	808006e <module_user_init+0x12>
    {
        link_constructors_location[ctor_num]();
    }
}
 808007c:	bd70      	pop	{r4, r5, r6, pc}
 808007e:	bf00      	nop
 8080080:	08082a0c 	.word	0x08082a0c
 8080084:	08082a40 	.word	0x08082a40

08080088 <module_user_setup>:

/**
 * Export these functions with a fuller name so they don't clash with the setup/loop wrappers in the system module.
 */
void module_user_setup() {
    setup();
 8080088:	f000 b88c 	b.w	80801a4 <setup>

0808008c <module_user_loop>:
}

void module_user_loop() {
 808008c:	b508      	push	{r3, lr}
    loop();
 808008e:	f000 f9ab 	bl	80803e8 <loop>
    _post_loop();
}
 8080092:	e8bd 4008 	ldmia.w	sp!, {r3, lr}
    setup();
}

void module_user_loop() {
    loop();
    _post_loop();
 8080096:	f001 bab3 	b.w	8081600 <_post_loop>

0808009a <_ZdlPv>:
 808009a:	f000 beb5 	b.w	8080e08 <free>

0808009e <__cxa_guard_acquire>:

/* Provide default implemenation for __cxa_guard_acquire() and
 * __cxa_guard_release(). Note: these must be revisited if a multitasking
 * OS is ported to this platform. */
__extension__ typedef int __guard __attribute__((mode (__DI__)));
int __cxa_guard_acquire(__guard *g) {return !*(char *)(g);};
 808009e:	7800      	ldrb	r0, [r0, #0]
 80800a0:	fab0 f080 	clz	r0, r0
 80800a4:	0940      	lsrs	r0, r0, #5
 80800a6:	4770      	bx	lr

080800a8 <__cxa_guard_release>:
void __cxa_guard_release (__guard *g) {*(char *)g = 1;};
 80800a8:	2301      	movs	r3, #1
 80800aa:	7003      	strb	r3, [r0, #0]
 80800ac:	4770      	bx	lr

080800ae <_ZN11USARTSerialD1Ev>:
private:
  HAL_USART_Serial _serial;
  bool _blocking;
public:
  USARTSerial(HAL_USART_Serial serial, Ring_Buffer *rx_buffer, Ring_Buffer *tx_buffer);
  virtual ~USARTSerial() {};
 80800ae:	4770      	bx	lr

080800b0 <_ZN11USARTSerialD0Ev>:
 80800b0:	b510      	push	{r4, lr}
 80800b2:	4604      	mov	r4, r0
 80800b4:	f7ff fff1 	bl	808009a <_ZdlPv>
 80800b8:	4620      	mov	r0, r4
 80800ba:	bd10      	pop	{r4, pc}

080800bc <_Z22__fetch_global_Serial4v>:
// instantiate Serial4
static Ring_Buffer serial4_rx_buffer;
static Ring_Buffer serial4_tx_buffer;

USARTSerial& __fetch_global_Serial4()
{
 80800bc:	b510      	push	{r4, lr}
	static USARTSerial serial4(HAL_USART_SERIAL4, &serial4_rx_buffer, &serial4_tx_buffer);
 80800be:	4c0c      	ldr	r4, [pc, #48]	; (80800f0 <_Z22__fetch_global_Serial4v+0x34>)
 80800c0:	6823      	ldr	r3, [r4, #0]
 80800c2:	07db      	lsls	r3, r3, #31
 80800c4:	d411      	bmi.n	80800ea <_Z22__fetch_global_Serial4v+0x2e>
 80800c6:	4620      	mov	r0, r4
 80800c8:	f7ff ffe9 	bl	808009e <__cxa_guard_acquire>
 80800cc:	b168      	cbz	r0, 80800ea <_Z22__fetch_global_Serial4v+0x2e>
 80800ce:	4a09      	ldr	r2, [pc, #36]	; (80800f4 <_Z22__fetch_global_Serial4v+0x38>)
 80800d0:	2103      	movs	r1, #3
 80800d2:	4b09      	ldr	r3, [pc, #36]	; (80800f8 <_Z22__fetch_global_Serial4v+0x3c>)
 80800d4:	4809      	ldr	r0, [pc, #36]	; (80800fc <_Z22__fetch_global_Serial4v+0x40>)
 80800d6:	f001 f951 	bl	808137c <_ZN11USARTSerialC1E16HAL_USART_SerialP11Ring_BufferS2_>
 80800da:	4620      	mov	r0, r4
 80800dc:	f7ff ffe4 	bl	80800a8 <__cxa_guard_release>
 80800e0:	4a07      	ldr	r2, [pc, #28]	; (8080100 <_Z22__fetch_global_Serial4v+0x44>)
 80800e2:	4908      	ldr	r1, [pc, #32]	; (8080104 <_Z22__fetch_global_Serial4v+0x48>)
 80800e4:	4805      	ldr	r0, [pc, #20]	; (80800fc <_Z22__fetch_global_Serial4v+0x40>)
 80800e6:	f001 fba9 	bl	808183c <__aeabi_atexit>
	return serial4;
}
 80800ea:	4804      	ldr	r0, [pc, #16]	; (80800fc <_Z22__fetch_global_Serial4v+0x40>)
 80800ec:	bd10      	pop	{r4, pc}
 80800ee:	bf00      	nop
 80800f0:	20000788 	.word	0x20000788
 80800f4:	200004f8 	.word	0x200004f8
 80800f8:	20000474 	.word	0x20000474
 80800fc:	20000774 	.word	0x20000774
 8080100:	20000470 	.word	0x20000470
 8080104:	080800af 	.word	0x080800af

08080108 <_Z15serialEventRun4v>:

void serialEventRun4()
{
 8080108:	b510      	push	{r4, lr}
    __handleSerialEvent(Serial4, serialEvent4);
 808010a:	f7ff ffd7 	bl	80800bc <_Z22__fetch_global_Serial4v>

inline void __handleSerialEvent(USARTSerial& serial, void (*handler)(void)) __attribute__((always_inline));

inline void __handleSerialEvent(USARTSerial& serial, void (*handler)(void))
{
    if (handler && serial.isEnabled() && serial.available()>0)
 808010e:	4b07      	ldr	r3, [pc, #28]	; (808012c <_Z15serialEventRun4v+0x24>)
 8080110:	4604      	mov	r4, r0
 8080112:	b153      	cbz	r3, 808012a <_Z15serialEventRun4v+0x22>
 8080114:	f001 f952 	bl	80813bc <_ZN11USARTSerial9isEnabledEv>
 8080118:	b138      	cbz	r0, 808012a <_Z15serialEventRun4v+0x22>
 808011a:	6823      	ldr	r3, [r4, #0]
 808011c:	4620      	mov	r0, r4
 808011e:	691b      	ldr	r3, [r3, #16]
 8080120:	4798      	blx	r3
 8080122:	2800      	cmp	r0, #0
 8080124:	dd01      	ble.n	808012a <_Z15serialEventRun4v+0x22>
        handler();
 8080126:	f3af 8000 	nop.w
 808012a:	bd10      	pop	{r4, pc}
 808012c:	00000000 	.word	0x00000000

08080130 <_Z22__fetch_global_Serial5v>:
// instantiate Serial5
static Ring_Buffer serial5_rx_buffer;
static Ring_Buffer serial5_tx_buffer;

USARTSerial& __fetch_global_Serial5()
{
 8080130:	b510      	push	{r4, lr}
	static USARTSerial serial5(HAL_USART_SERIAL5, &serial5_rx_buffer, &serial5_tx_buffer);
 8080132:	4c0c      	ldr	r4, [pc, #48]	; (8080164 <_Z22__fetch_global_Serial5v+0x34>)
 8080134:	6823      	ldr	r3, [r4, #0]
 8080136:	07db      	lsls	r3, r3, #31
 8080138:	d411      	bmi.n	808015e <_Z22__fetch_global_Serial5v+0x2e>
 808013a:	4620      	mov	r0, r4
 808013c:	f7ff ffaf 	bl	808009e <__cxa_guard_acquire>
 8080140:	b168      	cbz	r0, 808015e <_Z22__fetch_global_Serial5v+0x2e>
 8080142:	4a09      	ldr	r2, [pc, #36]	; (8080168 <_Z22__fetch_global_Serial5v+0x38>)
 8080144:	2104      	movs	r1, #4
 8080146:	4b09      	ldr	r3, [pc, #36]	; (808016c <_Z22__fetch_global_Serial5v+0x3c>)
 8080148:	4809      	ldr	r0, [pc, #36]	; (8080170 <_Z22__fetch_global_Serial5v+0x40>)
 808014a:	f001 f917 	bl	808137c <_ZN11USARTSerialC1E16HAL_USART_SerialP11Ring_BufferS2_>
 808014e:	4620      	mov	r0, r4
 8080150:	f7ff ffaa 	bl	80800a8 <__cxa_guard_release>
 8080154:	4a07      	ldr	r2, [pc, #28]	; (8080174 <_Z22__fetch_global_Serial5v+0x44>)
 8080156:	4908      	ldr	r1, [pc, #32]	; (8080178 <_Z22__fetch_global_Serial5v+0x48>)
 8080158:	4805      	ldr	r0, [pc, #20]	; (8080170 <_Z22__fetch_global_Serial5v+0x40>)
 808015a:	f001 fb6f 	bl	808183c <__aeabi_atexit>
	return serial5;
}
 808015e:	4804      	ldr	r0, [pc, #16]	; (8080170 <_Z22__fetch_global_Serial5v+0x40>)
 8080160:	bd10      	pop	{r4, pc}
 8080162:	bf00      	nop
 8080164:	20000600 	.word	0x20000600
 8080168:	2000057c 	.word	0x2000057c
 808016c:	20000604 	.word	0x20000604
 8080170:	20000688 	.word	0x20000688
 8080174:	20000470 	.word	0x20000470
 8080178:	080800af 	.word	0x080800af

0808017c <_Z15serialEventRun5v>:


void serialEventRun5()
{
 808017c:	b510      	push	{r4, lr}
    __handleSerialEvent(Serial5, serialEvent5);
 808017e:	f7ff ffd7 	bl	8080130 <_Z22__fetch_global_Serial5v>

inline void __handleSerialEvent(USARTSerial& serial, void (*handler)(void)) __attribute__((always_inline));

inline void __handleSerialEvent(USARTSerial& serial, void (*handler)(void))
{
    if (handler && serial.isEnabled() && serial.available()>0)
 8080182:	4b07      	ldr	r3, [pc, #28]	; (80801a0 <_Z15serialEventRun5v+0x24>)
 8080184:	4604      	mov	r4, r0
 8080186:	b153      	cbz	r3, 808019e <_Z15serialEventRun5v+0x22>
 8080188:	f001 f918 	bl	80813bc <_ZN11USARTSerial9isEnabledEv>
 808018c:	b138      	cbz	r0, 808019e <_Z15serialEventRun5v+0x22>
 808018e:	6823      	ldr	r3, [r4, #0]
 8080190:	4620      	mov	r0, r4
 8080192:	691b      	ldr	r3, [r3, #16]
 8080194:	4798      	blx	r3
 8080196:	2800      	cmp	r0, #0
 8080198:	dd01      	ble.n	808019e <_Z15serialEventRun5v+0x22>
        handler();
 808019a:	f3af 8000 	nop.w
 808019e:	bd10      	pop	{r4, pc}
 80801a0:	00000000 	.word	0x00000000

080801a4 <setup>:

TinyGPSPlus gps;
static const uint32_t GPSBaud = 9600;
double speed =0;

void setup() {
 80801a4:	b508      	push	{r3, lr}

  Serial.begin(9600); //usb debugging
 80801a6:	f001 f98b 	bl	80814c0 <_Z16_fetch_usbserialv>
 80801aa:	f44f 5116 	mov.w	r1, #9600	; 0x2580
 80801ae:	f001 f96d 	bl	808148c <_ZN9USBSerial5beginEl>
  Serial4.begin(9600); // uart for nextion
 80801b2:	f7ff ff83 	bl	80800bc <_Z22__fetch_global_Serial4v>
 80801b6:	f44f 5116 	mov.w	r1, #9600	; 0x2580
 80801ba:	f001 f8f9 	bl	80813b0 <_ZN11USARTSerial5beginEm>
  Serial5.begin(GPSBaud); // uart for GPS
 80801be:	f7ff ffb7 	bl	8080130 <_Z22__fetch_global_Serial5v>
 80801c2:	f44f 5116 	mov.w	r1, #9600	; 0x2580
 80801c6:	f001 f8f3 	bl	80813b0 <_ZN11USARTSerial5beginEm>
  pinMode(led1, OUTPUT);
 80801ca:	4b08      	ldr	r3, [pc, #32]	; (80801ec <setup+0x48>)
 80801cc:	2101      	movs	r1, #1
 80801ce:	8818      	ldrh	r0, [r3, #0]
 80801d0:	f001 faa4 	bl	808171c <pinMode>
  pinMode(led2, OUTPUT);
 80801d4:	4b06      	ldr	r3, [pc, #24]	; (80801f0 <setup+0x4c>)
 80801d6:	2101      	movs	r1, #1
 80801d8:	8818      	ldrh	r0, [r3, #0]
 80801da:	f001 fa9f 	bl	808171c <pinMode>
  Serial.print("started");
 80801de:	f001 f96f 	bl	80814c0 <_Z16_fetch_usbserialv>

}
 80801e2:	e8bd 4008 	ldmia.w	sp!, {r3, lr}
  Serial.begin(9600); //usb debugging
  Serial4.begin(9600); // uart for nextion
  Serial5.begin(GPSBaud); // uart for GPS
  pinMode(led1, OUTPUT);
  pinMode(led2, OUTPUT);
  Serial.print("started");
 80801e6:	4903      	ldr	r1, [pc, #12]	; (80801f4 <setup+0x50>)
 80801e8:	f000 bef4 	b.w	8080fd4 <_ZN5Print5printEPKc>
 80801ec:	2000078c 	.word	0x2000078c
 80801f0:	20000400 	.word	0x20000400
 80801f4:	08082664 	.word	0x08082664

080801f8 <_Z11displayInfov>:


//gps info 

void displayInfo()
{
 80801f8:	b573      	push	{r0, r1, r4, r5, r6, lr}
 80801fa:	4c6f      	ldr	r4, [pc, #444]	; (80803b8 <_Z11displayInfov+0x1c0>)
  Serial.print(F("Location: ")); 
 80801fc:	f001 f960 	bl	80814c0 <_Z16_fetch_usbserialv>
 8080200:	496e      	ldr	r1, [pc, #440]	; (80803bc <_Z11displayInfov+0x1c4>)
 8080202:	f000 fee7 	bl	8080fd4 <_ZN5Print5printEPKc>
  if (gps.location.isValid())
 8080206:	7823      	ldrb	r3, [r4, #0]
 8080208:	b1f3      	cbz	r3, 8080248 <_Z11displayInfov+0x50>
  {
    Serial.print(gps.location.lat(), 6);
 808020a:	f001 f959 	bl	80814c0 <_Z16_fetch_usbserialv>
 808020e:	4606      	mov	r6, r0
 8080210:	4620      	mov	r0, r4
 8080212:	f000 fa3d 	bl	8080690 <_ZN15TinyGPSLocation3latEv>
 8080216:	2506      	movs	r5, #6
 8080218:	4602      	mov	r2, r0
 808021a:	460b      	mov	r3, r1
 808021c:	9500      	str	r5, [sp, #0]
 808021e:	4630      	mov	r0, r6
 8080220:	f000 ffea 	bl	80811f8 <_ZN5Print5printEdi>
    Serial.print(F(","));
 8080224:	f001 f94c 	bl	80814c0 <_Z16_fetch_usbserialv>
 8080228:	4965      	ldr	r1, [pc, #404]	; (80803c0 <_Z11displayInfov+0x1c8>)
 808022a:	f000 fed3 	bl	8080fd4 <_ZN5Print5printEPKc>
    Serial.print(gps.location.lng(), 6);
 808022e:	f001 f947 	bl	80814c0 <_Z16_fetch_usbserialv>
 8080232:	4606      	mov	r6, r0
 8080234:	4620      	mov	r0, r4
 8080236:	f000 fa4b 	bl	80806d0 <_ZN15TinyGPSLocation3lngEv>
 808023a:	9500      	str	r5, [sp, #0]
 808023c:	4602      	mov	r2, r0
 808023e:	460b      	mov	r3, r1
 8080240:	4630      	mov	r0, r6
 8080242:	f000 ffd9 	bl	80811f8 <_ZN5Print5printEdi>
 8080246:	e004      	b.n	8080252 <_Z11displayInfov+0x5a>
  }
  else
  {
    Serial.print(F("INVALID"));
 8080248:	f001 f93a 	bl	80814c0 <_Z16_fetch_usbserialv>
 808024c:	495d      	ldr	r1, [pc, #372]	; (80803c4 <_Z11displayInfov+0x1cc>)
 808024e:	f000 fec1 	bl	8080fd4 <_ZN5Print5printEPKc>
  }

  Serial.print(F("  Date/Time: "));
 8080252:	f001 f935 	bl	80814c0 <_Z16_fetch_usbserialv>
 8080256:	495c      	ldr	r1, [pc, #368]	; (80803c8 <_Z11displayInfov+0x1d0>)
 8080258:	f000 febc 	bl	8080fd4 <_ZN5Print5printEPKc>
  if (gps.date.isValid())
 808025c:	f894 3038 	ldrb.w	r3, [r4, #56]	; 0x38
 8080260:	b35b      	cbz	r3, 80802ba <_Z11displayInfov+0xc2>
  {
    Serial.print(gps.date.month());
 8080262:	f001 f92d 	bl	80814c0 <_Z16_fetch_usbserialv>
 8080266:	4605      	mov	r5, r0
 8080268:	4858      	ldr	r0, [pc, #352]	; (80803cc <_Z11displayInfov+0x1d4>)
 808026a:	f000 fa81 	bl	8080770 <_ZN11TinyGPSDate5monthEv>
 808026e:	220a      	movs	r2, #10
 8080270:	4601      	mov	r1, r0
 8080272:	4628      	mov	r0, r5
 8080274:	f000 feeb 	bl	808104e <_ZN5Print5printEhi>
    Serial.print(F("/"));
 8080278:	f001 f922 	bl	80814c0 <_Z16_fetch_usbserialv>
 808027c:	4954      	ldr	r1, [pc, #336]	; (80803d0 <_Z11displayInfov+0x1d8>)
 808027e:	f000 fea9 	bl	8080fd4 <_ZN5Print5printEPKc>
    Serial.print(gps.date.day());
 8080282:	f001 f91d 	bl	80814c0 <_Z16_fetch_usbserialv>
 8080286:	4605      	mov	r5, r0
 8080288:	4850      	ldr	r0, [pc, #320]	; (80803cc <_Z11displayInfov+0x1d4>)
 808028a:	f000 fa7d 	bl	8080788 <_ZN11TinyGPSDate3dayEv>
 808028e:	220a      	movs	r2, #10
 8080290:	4601      	mov	r1, r0
 8080292:	4628      	mov	r0, r5
 8080294:	f000 fedb 	bl	808104e <_ZN5Print5printEhi>
    Serial.print(F("/"));
 8080298:	f001 f912 	bl	80814c0 <_Z16_fetch_usbserialv>
 808029c:	494c      	ldr	r1, [pc, #304]	; (80803d0 <_Z11displayInfov+0x1d8>)
 808029e:	f000 fe99 	bl	8080fd4 <_ZN5Print5printEPKc>
    Serial.print(gps.date.year());
 80802a2:	f001 f90d 	bl	80814c0 <_Z16_fetch_usbserialv>
 80802a6:	4605      	mov	r5, r0
 80802a8:	4848      	ldr	r0, [pc, #288]	; (80803cc <_Z11displayInfov+0x1d4>)
 80802aa:	f000 fa55 	bl	8080758 <_ZN11TinyGPSDate4yearEv>
 80802ae:	220a      	movs	r2, #10
 80802b0:	4601      	mov	r1, r0
 80802b2:	4628      	mov	r0, r5
 80802b4:	f000 feef 	bl	8081096 <_ZN5Print5printEii>
 80802b8:	e004      	b.n	80802c4 <_Z11displayInfov+0xcc>
  }
  else
  {
    Serial.print(F("INVALID"));
 80802ba:	f001 f901 	bl	80814c0 <_Z16_fetch_usbserialv>
 80802be:	4941      	ldr	r1, [pc, #260]	; (80803c4 <_Z11displayInfov+0x1cc>)
 80802c0:	f000 fe88 	bl	8080fd4 <_ZN5Print5printEPKc>
  }

  Serial.print(F(" "));
 80802c4:	f001 f8fc 	bl	80814c0 <_Z16_fetch_usbserialv>
 80802c8:	4942      	ldr	r1, [pc, #264]	; (80803d4 <_Z11displayInfov+0x1dc>)
 80802ca:	f000 fe83 	bl	8080fd4 <_ZN5Print5printEPKc>
  if (gps.time.isValid())
 80802ce:	f894 3048 	ldrb.w	r3, [r4, #72]	; 0x48
 80802d2:	2b00      	cmp	r3, #0
 80802d4:	d063      	beq.n	808039e <_Z11displayInfov+0x1a6>
  {
    if (gps.time.hour() < 10) Serial.print(F("0"));
 80802d6:	4840      	ldr	r0, [pc, #256]	; (80803d8 <_Z11displayInfov+0x1e0>)
 80802d8:	f000 fa60 	bl	808079c <_ZN11TinyGPSTime4hourEv>
 80802dc:	2809      	cmp	r0, #9
 80802de:	d804      	bhi.n	80802ea <_Z11displayInfov+0xf2>
 80802e0:	f001 f8ee 	bl	80814c0 <_Z16_fetch_usbserialv>
 80802e4:	493d      	ldr	r1, [pc, #244]	; (80803dc <_Z11displayInfov+0x1e4>)
 80802e6:	f000 fe75 	bl	8080fd4 <_ZN5Print5printEPKc>
    Serial.print(gps.time.hour());
 80802ea:	f001 f8e9 	bl	80814c0 <_Z16_fetch_usbserialv>
 80802ee:	4604      	mov	r4, r0
 80802f0:	4839      	ldr	r0, [pc, #228]	; (80803d8 <_Z11displayInfov+0x1e0>)
 80802f2:	f000 fa53 	bl	808079c <_ZN11TinyGPSTime4hourEv>
 80802f6:	220a      	movs	r2, #10
 80802f8:	4601      	mov	r1, r0
 80802fa:	4620      	mov	r0, r4
 80802fc:	f000 fea7 	bl	808104e <_ZN5Print5printEhi>
    Serial.print(F(":"));
 8080300:	f001 f8de 	bl	80814c0 <_Z16_fetch_usbserialv>
 8080304:	4936      	ldr	r1, [pc, #216]	; (80803e0 <_Z11displayInfov+0x1e8>)
 8080306:	f000 fe65 	bl	8080fd4 <_ZN5Print5printEPKc>
    if (gps.time.minute() < 10) Serial.print(F("0"));
 808030a:	4833      	ldr	r0, [pc, #204]	; (80803d8 <_Z11displayInfov+0x1e0>)
 808030c:	f000 fa50 	bl	80807b0 <_ZN11TinyGPSTime6minuteEv>
 8080310:	2809      	cmp	r0, #9
 8080312:	d804      	bhi.n	808031e <_Z11displayInfov+0x126>
 8080314:	f001 f8d4 	bl	80814c0 <_Z16_fetch_usbserialv>
 8080318:	4930      	ldr	r1, [pc, #192]	; (80803dc <_Z11displayInfov+0x1e4>)
 808031a:	f000 fe5b 	bl	8080fd4 <_ZN5Print5printEPKc>
    Serial.print(gps.time.minute());
 808031e:	f001 f8cf 	bl	80814c0 <_Z16_fetch_usbserialv>
 8080322:	4604      	mov	r4, r0
 8080324:	482c      	ldr	r0, [pc, #176]	; (80803d8 <_Z11displayInfov+0x1e0>)
 8080326:	f000 fa43 	bl	80807b0 <_ZN11TinyGPSTime6minuteEv>
 808032a:	220a      	movs	r2, #10
 808032c:	4601      	mov	r1, r0
 808032e:	4620      	mov	r0, r4
 8080330:	f000 fe8d 	bl	808104e <_ZN5Print5printEhi>
    Serial.print(F(":"));
 8080334:	f001 f8c4 	bl	80814c0 <_Z16_fetch_usbserialv>
 8080338:	4929      	ldr	r1, [pc, #164]	; (80803e0 <_Z11displayInfov+0x1e8>)
 808033a:	f000 fe4b 	bl	8080fd4 <_ZN5Print5printEPKc>
    if (gps.time.second() < 10) Serial.print(F("0"));
 808033e:	4826      	ldr	r0, [pc, #152]	; (80803d8 <_Z11displayInfov+0x1e0>)
 8080340:	f000 fa44 	bl	80807cc <_ZN11TinyGPSTime6secondEv>
 8080344:	2809      	cmp	r0, #9
 8080346:	d804      	bhi.n	8080352 <_Z11displayInfov+0x15a>
 8080348:	f001 f8ba 	bl	80814c0 <_Z16_fetch_usbserialv>
 808034c:	4923      	ldr	r1, [pc, #140]	; (80803dc <_Z11displayInfov+0x1e4>)
 808034e:	f000 fe41 	bl	8080fd4 <_ZN5Print5printEPKc>
    Serial.print(gps.time.second());
 8080352:	f001 f8b5 	bl	80814c0 <_Z16_fetch_usbserialv>
 8080356:	4604      	mov	r4, r0
 8080358:	481f      	ldr	r0, [pc, #124]	; (80803d8 <_Z11displayInfov+0x1e0>)
 808035a:	f000 fa37 	bl	80807cc <_ZN11TinyGPSTime6secondEv>
 808035e:	220a      	movs	r2, #10
 8080360:	4601      	mov	r1, r0
 8080362:	4620      	mov	r0, r4
 8080364:	f000 fe73 	bl	808104e <_ZN5Print5printEhi>
    Serial.print(F("."));
 8080368:	f001 f8aa 	bl	80814c0 <_Z16_fetch_usbserialv>
 808036c:	491d      	ldr	r1, [pc, #116]	; (80803e4 <_Z11displayInfov+0x1ec>)
 808036e:	f000 fe31 	bl	8080fd4 <_ZN5Print5printEPKc>
    if (gps.time.centisecond() < 10) Serial.print(F("0"));
 8080372:	4819      	ldr	r0, [pc, #100]	; (80803d8 <_Z11displayInfov+0x1e0>)
 8080374:	f000 fa36 	bl	80807e4 <_ZN11TinyGPSTime11centisecondEv>
 8080378:	2809      	cmp	r0, #9
 808037a:	d804      	bhi.n	8080386 <_Z11displayInfov+0x18e>
 808037c:	f001 f8a0 	bl	80814c0 <_Z16_fetch_usbserialv>
 8080380:	4916      	ldr	r1, [pc, #88]	; (80803dc <_Z11displayInfov+0x1e4>)
 8080382:	f000 fe27 	bl	8080fd4 <_ZN5Print5printEPKc>
    Serial.print(gps.time.centisecond());
 8080386:	f001 f89b 	bl	80814c0 <_Z16_fetch_usbserialv>
 808038a:	4604      	mov	r4, r0
 808038c:	4812      	ldr	r0, [pc, #72]	; (80803d8 <_Z11displayInfov+0x1e0>)
 808038e:	f000 fa29 	bl	80807e4 <_ZN11TinyGPSTime11centisecondEv>
 8080392:	220a      	movs	r2, #10
 8080394:	4601      	mov	r1, r0
 8080396:	4620      	mov	r0, r4
 8080398:	f000 fe59 	bl	808104e <_ZN5Print5printEhi>
 808039c:	e004      	b.n	80803a8 <_Z11displayInfov+0x1b0>

    
  }
  else
  {
    Serial.print(F("INVALID"));
 808039e:	f001 f88f 	bl	80814c0 <_Z16_fetch_usbserialv>
 80803a2:	4908      	ldr	r1, [pc, #32]	; (80803c4 <_Z11displayInfov+0x1cc>)
 80803a4:	f000 fe16 	bl	8080fd4 <_ZN5Print5printEPKc>
  }

  Serial.println();
 80803a8:	f001 f88a 	bl	80814c0 <_Z16_fetch_usbserialv>
}
 80803ac:	b002      	add	sp, #8
 80803ae:	e8bd 4070 	ldmia.w	sp!, {r4, r5, r6, lr}
  else
  {
    Serial.print(F("INVALID"));
  }

  Serial.println();
 80803b2:	f000 be16 	b.w	8080fe2 <_ZN5Print7printlnEv>
 80803b6:	bf00      	nop
 80803b8:	2000069c 	.word	0x2000069c
 80803bc:	0808266c 	.word	0x0808266c
 80803c0:	08082677 	.word	0x08082677
 80803c4:	08082679 	.word	0x08082679
 80803c8:	08082681 	.word	0x08082681
 80803cc:	200006d4 	.word	0x200006d4
 80803d0:	0808268f 	.word	0x0808268f
 80803d4:	0808273f 	.word	0x0808273f
 80803d8:	200006e4 	.word	0x200006e4
 80803dc:	08082691 	.word	0x08082691
 80803e0:	08082693 	.word	0x08082693
 80803e4:	08082695 	.word	0x08082695

080803e8 <loop>:
  Serial.print("started");

}


void loop() {
 80803e8:	b573      	push	{r0, r1, r4, r5, r6, lr}


while (Serial5.available() > 0)
 80803ea:	f7ff fea1 	bl	8080130 <_Z22__fetch_global_Serial5v>
 80803ee:	6803      	ldr	r3, [r0, #0]
 80803f0:	691b      	ldr	r3, [r3, #16]
 80803f2:	4798      	blx	r3
 80803f4:	2800      	cmp	r0, #0
 80803f6:	dd0d      	ble.n	8080414 <loop+0x2c>
    if (gps.encode(Serial5.read()))
 80803f8:	f7ff fe9a 	bl	8080130 <_Z22__fetch_global_Serial5v>
 80803fc:	6803      	ldr	r3, [r0, #0]
 80803fe:	695b      	ldr	r3, [r3, #20]
 8080400:	4798      	blx	r3
 8080402:	b2c1      	uxtb	r1, r0
 8080404:	482c      	ldr	r0, [pc, #176]	; (80804b8 <loop+0xd0>)
 8080406:	f000 fb51 	bl	8080aac <_ZN11TinyGPSPlus6encodeEc>
 808040a:	2800      	cmp	r0, #0
 808040c:	d0ed      	beq.n	80803ea <loop+0x2>
      displayInfo();
 808040e:	f7ff fef3 	bl	80801f8 <_Z11displayInfov>
 8080412:	e7ea      	b.n	80803ea <loop+0x2>

  // To blink the LED, first we'll turn it on...


  // We'll leave it on for 1 second...
  delay(500);
 8080414:	f44f 70fa 	mov.w	r0, #500	; 0x1f4
 8080418:	f000 fd06 	bl	8080e28 <delay>
   friend class TinyGPSPlus;
public:
   bool isValid() const    { return valid; }
   bool isUpdated() const  { return updated; }
   uint32_t age() const    { return valid ? millis() - lastCommitTime : (uint32_t)ULONG_MAX; }
   int32_t value()         { updated = false; return val; }
 808041c:	4b26      	ldr	r3, [pc, #152]	; (80804b8 <loop+0xd0>)
 808041e:	2400      	movs	r4, #0
 8080420:	f883 4059 	strb.w	r4, [r3, #89]	; 0x59
  speed = gps.speed.kmph();
 8080424:	6e18      	ldr	r0, [r3, #96]	; 0x60
 8080426:	f001 fca9 	bl	8081d7c <__aeabi_i2d>
 808042a:	a321      	add	r3, pc, #132	; (adr r3, 80804b0 <loop+0xc8>)
 808042c:	e9d3 2300 	ldrd	r2, r3, [r3]
 8080430:	f001 fd0a 	bl	8081e48 <__aeabi_dmul>
 8080434:	2200      	movs	r2, #0
 8080436:	4b21      	ldr	r3, [pc, #132]	; (80804bc <loop+0xd4>)
 8080438:	f001 fe30 	bl	808209c <__aeabi_ddiv>
 808043c:	4d20      	ldr	r5, [pc, #128]	; (80804c0 <loop+0xd8>)
  Serial.print(speed);
 808043e:	2602      	movs	r6, #2
  // To blink the LED, first we'll turn it on...


  // We'll leave it on for 1 second...
  delay(500);
  speed = gps.speed.kmph();
 8080440:	e9c5 0100 	strd	r0, r1, [r5]
  Serial.print(speed);
 8080444:	f001 f83c 	bl	80814c0 <_Z16_fetch_usbserialv>
 8080448:	e9d5 2300 	ldrd	r2, r3, [r5]
 808044c:	9600      	str	r6, [sp, #0]
 808044e:	f000 fed3 	bl	80811f8 <_ZN5Print5printEdi>
  // Then we'll turn it off...
  digitalWrite(led1, LOW);
 8080452:	4b1c      	ldr	r3, [pc, #112]	; (80804c4 <loop+0xdc>)
 8080454:	4621      	mov	r1, r4
 8080456:	8818      	ldrh	r0, [r3, #0]
 8080458:	f001 f971 	bl	808173e <digitalWrite>
  digitalWrite(led2, LOW);
 808045c:	4b1a      	ldr	r3, [pc, #104]	; (80804c8 <loop+0xe0>)
 808045e:	4621      	mov	r1, r4
 8080460:	8818      	ldrh	r0, [r3, #0]
 8080462:	f001 f96c 	bl	808173e <digitalWrite>
  Serial4.printf("n0.val=66");
 8080466:	f7ff fe29 	bl	80800bc <_Z22__fetch_global_Serial4v>
    size_t println(const __FlashStringHelper*);

    template <typename... Args>
    inline size_t printf(const char* format, Args... args)
    {
        return this->printf_impl(false, format, args...);
 808046a:	4621      	mov	r1, r4
 808046c:	4a17      	ldr	r2, [pc, #92]	; (80804cc <loop+0xe4>)
 808046e:	f000 fec8 	bl	8081202 <_ZN5Print11printf_implEbPKcz>
  Serial4.print(speed);
 8080472:	f7ff fe23 	bl	80800bc <_Z22__fetch_global_Serial4v>
 8080476:	e9d5 2300 	ldrd	r2, r3, [r5]
 808047a:	9600      	str	r6, [sp, #0]
 808047c:	f000 febc 	bl	80811f8 <_ZN5Print5printEdi>
  Serial4.write(0xff);
 8080480:	f7ff fe1c 	bl	80800bc <_Z22__fetch_global_Serial4v>
  bool breakRx(void);

  inline size_t write(unsigned long n) { return write((uint16_t)n); }
  inline size_t write(long n) { return write((uint16_t)n); }
  inline size_t write(unsigned int n) { return write((uint16_t)n); }
  inline size_t write(int n) { return write((uint16_t)n); }
 8080484:	21ff      	movs	r1, #255	; 0xff
 8080486:	f000 ff96 	bl	80813b6 <_ZN11USARTSerial5writeEt>
  Serial4.write(0xff);
 808048a:	f7ff fe17 	bl	80800bc <_Z22__fetch_global_Serial4v>
 808048e:	21ff      	movs	r1, #255	; 0xff
 8080490:	f000 ff91 	bl	80813b6 <_ZN11USARTSerial5writeEt>
  Serial4.write(0xff);
 8080494:	f7ff fe12 	bl	80800bc <_Z22__fetch_global_Serial4v>
 8080498:	21ff      	movs	r1, #255	; 0xff
 808049a:	f000 ff8c 	bl	80813b6 <_ZN11USARTSerial5writeEt>
  // Wait 1 second...
  delay(500);
 808049e:	f44f 70fa 	mov.w	r0, #500	; 0x1f4
  //Serial.printlnf("printooooboi");

  // And repeat!
}
 80804a2:	b002      	add	sp, #8
 80804a4:	e8bd 4070 	ldmia.w	sp!, {r4, r5, r6, lr}
  Serial4.print(speed);
  Serial4.write(0xff);
  Serial4.write(0xff);
  Serial4.write(0xff);
  // Wait 1 second...
  delay(500);
 80804a8:	f000 bcbe 	b.w	8080e28 <delay>
 80804ac:	f3af 8000 	nop.w
 80804b0:	c083126f 	.word	0xc083126f
 80804b4:	3ffda1ca 	.word	0x3ffda1ca
 80804b8:	2000069c 	.word	0x2000069c
 80804bc:	40590000 	.word	0x40590000
 80804c0:	20000790 	.word	0x20000790
 80804c4:	2000078c 	.word	0x2000078c
 80804c8:	20000400 	.word	0x20000400
 80804cc:	08082697 	.word	0x08082697

080804d0 <_GLOBAL__sub_I_led1>:
  {
    Serial.print(F("INVALID"));
  }

  Serial.println();
}
 80804d0:	b508      	push	{r3, lr}
inline int32_t pinReadFast(pin_t _pin)
{
	return ((PIN_MAP[_pin].gpio_peripheral->IDR & PIN_MAP[_pin].gpio_pin) == 0 ? LOW : HIGH);
}
#elif defined(STM32F2XX)
static STM32_Pin_Info* PIN_MAP = HAL_Pin_Map();
 80804d2:	f000 fb65 	bl	8080ba0 <HAL_Pin_Map>

int led1 = D0; 
int led2 = D7; 
SYSTEM_THREAD(ENABLED);
 80804d6:	2001      	movs	r0, #1
 80804d8:	2100      	movs	r1, #0
 80804da:	f000 fc61 	bl	8080da0 <system_thread_set_state>
  {
    Serial.print(F("INVALID"));
  }

  Serial.println();
}
 80804de:	e8bd 4008 	ldmia.w	sp!, {r3, lr}
#include "Serial4/Serial4.h"
#include "Serial5/Serial5.h"
#include "../lib/TinyGPS++/src/TinyGPS++.h"


TinyGPSPlus gps;
 80804e2:	4801      	ldr	r0, [pc, #4]	; (80804e8 <_GLOBAL__sub_I_led1+0x18>)
 80804e4:	f000 b802 	b.w	80804ec <_ZN11TinyGPSPlusC1Ev>
 80804e8:	2000069c 	.word	0x2000069c

080804ec <_ZN11TinyGPSPlusC1Ev>:
   const RawDegrees &rawLat()     { updated = false; return rawLatData; }
   const RawDegrees &rawLng()     { updated = false; return rawLngData; }
   double lat();
   double lng();

   TinyGPSLocation() : valid(false), updated(false)
 80804ec:	2200      	movs	r2, #0
  ,  customElts(0)
  ,  customCandidates(0)
  ,  encodedCharCount(0)
  ,  sentencesWithFixCount(0)
  ,  failedChecksumCount(0)
  ,  passedChecksumCount(0)
 80804ee:	2102      	movs	r1, #2
 80804f0:	7002      	strb	r2, [r0, #0]
 80804f2:	7042      	strb	r2, [r0, #1]
{
   uint16_t deg;
   uint32_t billionths;
   bool negative;
public:
   RawDegrees() : deg(0), billionths(0), negative(false)
 80804f4:	8082      	strh	r2, [r0, #4]
 80804f6:	6082      	str	r2, [r0, #8]
 80804f8:	7302      	strb	r2, [r0, #12]
 80804fa:	8202      	strh	r2, [r0, #16]
 80804fc:	6142      	str	r2, [r0, #20]
 80804fe:	7602      	strb	r2, [r0, #24]
 8080500:	8382      	strh	r2, [r0, #28]
 8080502:	6202      	str	r2, [r0, #32]
 8080504:	f880 2024 	strb.w	r2, [r0, #36]	; 0x24
 8080508:	8502      	strh	r2, [r0, #40]	; 0x28
 808050a:	62c2      	str	r2, [r0, #44]	; 0x2c
 808050c:	f880 2030 	strb.w	r2, [r0, #48]	; 0x30
   uint32_t value()           { updated = false; return date; }
   uint16_t year();
   uint8_t month();
   uint8_t day();

   TinyGPSDate() : valid(false), updated(false), date(0)
 8080510:	f880 2038 	strb.w	r2, [r0, #56]	; 0x38
 8080514:	f880 2039 	strb.w	r2, [r0, #57]	; 0x39
 8080518:	63c2      	str	r2, [r0, #60]	; 0x3c
   uint8_t hour();
   uint8_t minute();
   uint8_t second();
   uint8_t centisecond();

   TinyGPSTime() : valid(false), updated(false), time(0)
 808051a:	f880 2048 	strb.w	r2, [r0, #72]	; 0x48
 808051e:	f880 2049 	strb.w	r2, [r0, #73]	; 0x49
 8080522:	64c2      	str	r2, [r0, #76]	; 0x4c
   bool isValid() const    { return valid; }
   bool isUpdated() const  { return updated; }
   uint32_t age() const    { return valid ? millis() - lastCommitTime : (uint32_t)ULONG_MAX; }
   int32_t value()         { updated = false; return val; }

   TinyGPSDecimal() : valid(false), updated(false), val(0)
 8080524:	f880 2058 	strb.w	r2, [r0, #88]	; 0x58
 8080528:	f880 2059 	strb.w	r2, [r0, #89]	; 0x59
 808052c:	6602      	str	r2, [r0, #96]	; 0x60
 808052e:	f880 2068 	strb.w	r2, [r0, #104]	; 0x68
 8080532:	f880 2069 	strb.w	r2, [r0, #105]	; 0x69
 8080536:	6702      	str	r2, [r0, #112]	; 0x70
 8080538:	f880 2078 	strb.w	r2, [r0, #120]	; 0x78
 808053c:	f880 2079 	strb.w	r2, [r0, #121]	; 0x79
 8080540:	f8c0 2080 	str.w	r2, [r0, #128]	; 0x80
   bool isValid() const    { return valid; }
   bool isUpdated() const  { return updated; }
   uint32_t age() const    { return valid ? millis() - lastCommitTime : (uint32_t)ULONG_MAX; }
   uint32_t value()        { updated = false; return val; }

   TinyGPSInteger() : valid(false), updated(false), val(0)
 8080544:	f880 2088 	strb.w	r2, [r0, #136]	; 0x88
 8080548:	f880 2089 	strb.w	r2, [r0, #137]	; 0x89
 808054c:	f8c0 2090 	str.w	r2, [r0, #144]	; 0x90
   bool isValid() const    { return valid; }
   bool isUpdated() const  { return updated; }
   uint32_t age() const    { return valid ? millis() - lastCommitTime : (uint32_t)ULONG_MAX; }
   int32_t value()         { updated = false; return val; }

   TinyGPSDecimal() : valid(false), updated(false), val(0)
 8080550:	f880 2098 	strb.w	r2, [r0, #152]	; 0x98
 8080554:	f880 2099 	strb.w	r2, [r0, #153]	; 0x99
 8080558:	f8c0 20a0 	str.w	r2, [r0, #160]	; 0xa0
 808055c:	f880 20a8 	strb.w	r2, [r0, #168]	; 0xa8
 8080560:	f880 20a9 	strb.w	r2, [r0, #169]	; 0xa9
 8080564:	f880 10b9 	strb.w	r1, [r0, #185]	; 0xb9
 8080568:	f880 20ba 	strb.w	r2, [r0, #186]	; 0xba
 808056c:	f880 20bb 	strb.w	r2, [r0, #187]	; 0xbb
 8080570:	f880 20bc 	strb.w	r2, [r0, #188]	; 0xbc
 8080574:	f8c0 20c0 	str.w	r2, [r0, #192]	; 0xc0
 8080578:	f8c0 20c4 	str.w	r2, [r0, #196]	; 0xc4
 808057c:	f8c0 20c8 	str.w	r2, [r0, #200]	; 0xc8
 8080580:	f8c0 20cc 	str.w	r2, [r0, #204]	; 0xcc
 8080584:	f8c0 20d0 	str.w	r2, [r0, #208]	; 0xd0
 8080588:	f8c0 20d4 	str.w	r2, [r0, #212]	; 0xd4
{
  term[0] = '\0';
 808058c:	f880 20aa 	strb.w	r2, [r0, #170]	; 0xaa
}
 8080590:	4770      	bx	lr

08080592 <_ZN11TinyGPSPlus7fromHexEc>:
//
// internal utilities
//
int TinyGPSPlus::fromHex(char a)
{
  if (a >= 'A' && a <= 'F')
 8080592:	f1a1 0341 	sub.w	r3, r1, #65	; 0x41
 8080596:	2b05      	cmp	r3, #5
 8080598:	d802      	bhi.n	80805a0 <_ZN11TinyGPSPlus7fromHexEc+0xe>
    return a - 'A' + 10;
 808059a:	f1a1 0037 	sub.w	r0, r1, #55	; 0x37
 808059e:	4770      	bx	lr
  else if (a >= 'a' && a <= 'f')
 80805a0:	f1a1 0361 	sub.w	r3, r1, #97	; 0x61
 80805a4:	2b05      	cmp	r3, #5
    return a - 'a' + 10;
 80805a6:	bf94      	ite	ls
 80805a8:	f1a1 0057 	subls.w	r0, r1, #87	; 0x57
  else
    return a - '0';
 80805ac:	f1a1 0030 	subhi.w	r0, r1, #48	; 0x30
}
 80805b0:	4770      	bx	lr

080805b2 <_ZN11TinyGPSPlus12parseDecimalEPKc>:

// static
// Parse a (potentially negative) number with up to 2 decimal digits -xxxx.yy
int32_t TinyGPSPlus::parseDecimal(const char *term)
{
 80805b2:	b538      	push	{r3, r4, r5, lr}
 80805b4:	4604      	mov	r4, r0
  bool negative = *term == '-';
 80805b6:	7805      	ldrb	r5, [r0, #0]
  if (negative) ++term;
 80805b8:	2d2d      	cmp	r5, #45	; 0x2d
 80805ba:	bf08      	it	eq
 80805bc:	3401      	addeq	r4, #1
  int32_t ret = 100 * (int32_t)atol(term);
 80805be:	4620      	mov	r0, r4
 80805c0:	f001 ff3a 	bl	8082438 <atol>
 80805c4:	2364      	movs	r3, #100	; 0x64
 80805c6:	4358      	muls	r0, r3
 80805c8:	4622      	mov	r2, r4
  while (isdigit(*term)) ++term;
 80805ca:	f814 3b01 	ldrb.w	r3, [r4], #1
 80805ce:	f1a3 0130 	sub.w	r1, r3, #48	; 0x30
 80805d2:	2909      	cmp	r1, #9
 80805d4:	d9f8      	bls.n	80805c8 <_ZN11TinyGPSPlus12parseDecimalEPKc+0x16>
  if (*term == '.' && isdigit(term[1]))
 80805d6:	2b2e      	cmp	r3, #46	; 0x2e
 80805d8:	d10b      	bne.n	80805f2 <_ZN11TinyGPSPlus12parseDecimalEPKc+0x40>
 80805da:	7853      	ldrb	r3, [r2, #1]
 80805dc:	3b30      	subs	r3, #48	; 0x30
 80805de:	2b09      	cmp	r3, #9
 80805e0:	d807      	bhi.n	80805f2 <_ZN11TinyGPSPlus12parseDecimalEPKc+0x40>
  {
    ret += 10 * (term[1] - '0');
 80805e2:	210a      	movs	r1, #10
 80805e4:	fb01 0003 	mla	r0, r1, r3, r0
    if (isdigit(term[2]))
 80805e8:	7893      	ldrb	r3, [r2, #2]
 80805ea:	3b30      	subs	r3, #48	; 0x30
 80805ec:	2b09      	cmp	r3, #9
      ret += term[2] - '0';
 80805ee:	bf98      	it	ls
 80805f0:	18c0      	addls	r0, r0, r3
  }
  return negative ? -ret : ret;
 80805f2:	2d2d      	cmp	r5, #45	; 0x2d
 80805f4:	bf08      	it	eq
 80805f6:	4240      	negeq	r0, r0
}
 80805f8:	bd38      	pop	{r3, r4, r5, pc}
	...

080805fc <_ZN11TinyGPSPlus12parseDegreesEPKcR10RawDegrees>:

// static
// Parse degrees in that funny NMEA format DDMM.MMMM
void TinyGPSPlus::parseDegrees(const char *term, RawDegrees &deg)
{
 80805fc:	b538      	push	{r3, r4, r5, lr}
 80805fe:	4604      	mov	r4, r0
 8080600:	460d      	mov	r5, r1
  uint32_t leftOfDecimal = (uint32_t)atol(term);
 8080602:	f001 ff19 	bl	8082438 <atol>
  uint16_t minutes = (uint16_t)(leftOfDecimal % 100);
  uint32_t multiplier = 10000000UL;
  uint32_t tenMillionthsOfMinutes = minutes * multiplier;
 8080606:	2364      	movs	r3, #100	; 0x64
 8080608:	fbb0 f2f3 	udiv	r2, r0, r3
 808060c:	fb03 0012 	mls	r0, r3, r2, r0
 8080610:	4b11      	ldr	r3, [pc, #68]	; (8080658 <_ZN11TinyGPSPlus12parseDegreesEPKcR10RawDegrees+0x5c>)

  deg.deg = (int16_t)(leftOfDecimal / 100);
 8080612:	802a      	strh	r2, [r5, #0]
void TinyGPSPlus::parseDegrees(const char *term, RawDegrees &deg)
{
  uint32_t leftOfDecimal = (uint32_t)atol(term);
  uint16_t minutes = (uint16_t)(leftOfDecimal % 100);
  uint32_t multiplier = 10000000UL;
  uint32_t tenMillionthsOfMinutes = minutes * multiplier;
 8080614:	4343      	muls	r3, r0
 8080616:	4620      	mov	r0, r4

  deg.deg = (int16_t)(leftOfDecimal / 100);

  while (isdigit(*term))
 8080618:	7802      	ldrb	r2, [r0, #0]
 808061a:	4604      	mov	r4, r0
 808061c:	f1a2 0130 	sub.w	r1, r2, #48	; 0x30
 8080620:	2909      	cmp	r1, #9
 8080622:	f100 0001 	add.w	r0, r0, #1
 8080626:	d9f7      	bls.n	8080618 <_ZN11TinyGPSPlus12parseDegreesEPKcR10RawDegrees+0x1c>
    ++term;

  if (*term == '.')
 8080628:	2a2e      	cmp	r2, #46	; 0x2e
 808062a:	d10b      	bne.n	8080644 <_ZN11TinyGPSPlus12parseDegreesEPKcR10RawDegrees+0x48>
 808062c:	490a      	ldr	r1, [pc, #40]	; (8080658 <_ZN11TinyGPSPlus12parseDegreesEPKcR10RawDegrees+0x5c>)
    while (isdigit(*++term))
    {
      multiplier /= 10;
 808062e:	200a      	movs	r0, #10

  while (isdigit(*term))
    ++term;

  if (*term == '.')
    while (isdigit(*++term))
 8080630:	f814 2f01 	ldrb.w	r2, [r4, #1]!
 8080634:	3a30      	subs	r2, #48	; 0x30
 8080636:	2a09      	cmp	r2, #9
 8080638:	d804      	bhi.n	8080644 <_ZN11TinyGPSPlus12parseDegreesEPKcR10RawDegrees+0x48>
    {
      multiplier /= 10;
 808063a:	fbb1 f1f0 	udiv	r1, r1, r0
      tenMillionthsOfMinutes += (*term - '0') * multiplier;
 808063e:	fb01 3302 	mla	r3, r1, r2, r3

  while (isdigit(*term))
    ++term;

  if (*term == '.')
    while (isdigit(*++term))
 8080642:	e7f5      	b.n	8080630 <_ZN11TinyGPSPlus12parseDegreesEPKcR10RawDegrees+0x34>
    {
      multiplier /= 10;
      tenMillionthsOfMinutes += (*term - '0') * multiplier;
    }

  deg.billionths = (5 * tenMillionthsOfMinutes + 1) / 3;
 8080644:	eb03 0383 	add.w	r3, r3, r3, lsl #2
 8080648:	3301      	adds	r3, #1
 808064a:	2203      	movs	r2, #3
 808064c:	fbb3 f3f2 	udiv	r3, r3, r2
 8080650:	606b      	str	r3, [r5, #4]
  deg.negative = false;
 8080652:	2300      	movs	r3, #0
 8080654:	722b      	strb	r3, [r5, #8]
 8080656:	bd38      	pop	{r3, r4, r5, pc}
 8080658:	00989680 	.word	0x00989680

0808065c <_ZN15TinyGPSLocation6commitEv>:
  return directions[direction % 16];
}

void TinyGPSLocation::commit()
{
   rawLatData = rawNewLatData;
 808065c:	4603      	mov	r3, r0
  int direction = (int)((course + 11.25f) / 22.5f);
  return directions[direction % 16];
}

void TinyGPSLocation::commit()
{
 808065e:	b510      	push	{r4, lr}
   rawLatData = rawNewLatData;
 8080660:	f853 2f1c 	ldr.w	r2, [r3, #28]!
  int direction = (int)((course + 11.25f) / 22.5f);
  return directions[direction % 16];
}

void TinyGPSLocation::commit()
{
 8080664:	4604      	mov	r4, r0
   rawLatData = rawNewLatData;
 8080666:	6042      	str	r2, [r0, #4]
 8080668:	685a      	ldr	r2, [r3, #4]
 808066a:	6082      	str	r2, [r0, #8]
 808066c:	7a1b      	ldrb	r3, [r3, #8]
 808066e:	7303      	strb	r3, [r0, #12]
   rawLngData = rawNewLngData;
 8080670:	4603      	mov	r3, r0
 8080672:	f853 2f28 	ldr.w	r2, [r3, #40]!
 8080676:	6102      	str	r2, [r0, #16]
 8080678:	685a      	ldr	r2, [r3, #4]
 808067a:	6142      	str	r2, [r0, #20]
 808067c:	7a1b      	ldrb	r3, [r3, #8]
 808067e:	7603      	strb	r3, [r0, #24]
#endif

#include "timer_hal.h"
#include "delay_hal.h"

inline system_tick_t millis(void) { return HAL_Timer_Get_Milli_Seconds(); }
 8080680:	f000 fa86 	bl	8080b90 <HAL_Timer_Get_Milli_Seconds>
   lastCommitTime = millis();
   valid = updated = true;
 8080684:	2301      	movs	r3, #1

void TinyGPSLocation::commit()
{
   rawLatData = rawNewLatData;
   rawLngData = rawNewLngData;
   lastCommitTime = millis();
 8080686:	6360      	str	r0, [r4, #52]	; 0x34
   valid = updated = true;
 8080688:	7063      	strb	r3, [r4, #1]
 808068a:	7023      	strb	r3, [r4, #0]
 808068c:	bd10      	pop	{r4, pc}
	...

08080690 <_ZN15TinyGPSLocation3latEv>:
{
   TinyGPSPlus::parseDegrees(term, rawNewLngData);
}

double TinyGPSLocation::lat()
{
 8080690:	b5d0      	push	{r4, r6, r7, lr}
   updated = false;
 8080692:	2300      	movs	r3, #0
{
   TinyGPSPlus::parseDegrees(term, rawNewLngData);
}

double TinyGPSLocation::lat()
{
 8080694:	4604      	mov	r4, r0
   updated = false;
 8080696:	7043      	strb	r3, [r0, #1]
   double ret = rawLatData.deg + rawLatData.billionths / 1000000000.0;
 8080698:	6880      	ldr	r0, [r0, #8]
 808069a:	f001 fb5f 	bl	8081d5c <__aeabi_ui2d>
 808069e:	a30a      	add	r3, pc, #40	; (adr r3, 80806c8 <_ZN15TinyGPSLocation3latEv+0x38>)
 80806a0:	e9d3 2300 	ldrd	r2, r3, [r3]
 80806a4:	f001 fcfa 	bl	808209c <__aeabi_ddiv>
 80806a8:	4606      	mov	r6, r0
 80806aa:	88a0      	ldrh	r0, [r4, #4]
 80806ac:	460f      	mov	r7, r1
 80806ae:	f001 fb65 	bl	8081d7c <__aeabi_i2d>
 80806b2:	460b      	mov	r3, r1
 80806b4:	4602      	mov	r2, r0
 80806b6:	4639      	mov	r1, r7
 80806b8:	4630      	mov	r0, r6
 80806ba:	f001 fa13 	bl	8081ae4 <__adddf3>
   return rawLatData.negative ? -ret : ret;
 80806be:	7b23      	ldrb	r3, [r4, #12]
 80806c0:	b10b      	cbz	r3, 80806c6 <_ZN15TinyGPSLocation3latEv+0x36>
 80806c2:	f101 4100 	add.w	r1, r1, #2147483648	; 0x80000000
}
 80806c6:	bdd0      	pop	{r4, r6, r7, pc}
 80806c8:	00000000 	.word	0x00000000
 80806cc:	41cdcd65 	.word	0x41cdcd65

080806d0 <_ZN15TinyGPSLocation3lngEv>:

double TinyGPSLocation::lng()
{
 80806d0:	b5d0      	push	{r4, r6, r7, lr}
   updated = false;
 80806d2:	2300      	movs	r3, #0
   double ret = rawLatData.deg + rawLatData.billionths / 1000000000.0;
   return rawLatData.negative ? -ret : ret;
}

double TinyGPSLocation::lng()
{
 80806d4:	4604      	mov	r4, r0
   updated = false;
 80806d6:	7043      	strb	r3, [r0, #1]
   double ret = rawLngData.deg + rawLngData.billionths / 1000000000.0;
 80806d8:	6940      	ldr	r0, [r0, #20]
 80806da:	f001 fb3f 	bl	8081d5c <__aeabi_ui2d>
 80806de:	a30a      	add	r3, pc, #40	; (adr r3, 8080708 <_ZN15TinyGPSLocation3lngEv+0x38>)
 80806e0:	e9d3 2300 	ldrd	r2, r3, [r3]
 80806e4:	f001 fcda 	bl	808209c <__aeabi_ddiv>
 80806e8:	4606      	mov	r6, r0
 80806ea:	8a20      	ldrh	r0, [r4, #16]
 80806ec:	460f      	mov	r7, r1
 80806ee:	f001 fb45 	bl	8081d7c <__aeabi_i2d>
 80806f2:	460b      	mov	r3, r1
 80806f4:	4602      	mov	r2, r0
 80806f6:	4639      	mov	r1, r7
 80806f8:	4630      	mov	r0, r6
 80806fa:	f001 f9f3 	bl	8081ae4 <__adddf3>
   return rawLngData.negative ? -ret : ret;
 80806fe:	7e23      	ldrb	r3, [r4, #24]
 8080700:	b10b      	cbz	r3, 8080706 <_ZN15TinyGPSLocation3lngEv+0x36>
 8080702:	f101 4100 	add.w	r1, r1, #2147483648	; 0x80000000
}
 8080706:	bdd0      	pop	{r4, r6, r7, pc}
 8080708:	00000000 	.word	0x00000000
 808070c:	41cdcd65 	.word	0x41cdcd65

08080710 <_ZN11TinyGPSDate6commitEv>:

void TinyGPSDate::commit()
{
 8080710:	b510      	push	{r4, lr}
   date = newDate;
 8080712:	6883      	ldr	r3, [r0, #8]
   double ret = rawLngData.deg + rawLngData.billionths / 1000000000.0;
   return rawLngData.negative ? -ret : ret;
}

void TinyGPSDate::commit()
{
 8080714:	4604      	mov	r4, r0
   date = newDate;
 8080716:	6043      	str	r3, [r0, #4]
 8080718:	f000 fa3a 	bl	8080b90 <HAL_Timer_Get_Milli_Seconds>
   lastCommitTime = millis();
   valid = updated = true;
 808071c:	2301      	movs	r3, #1
}

void TinyGPSDate::commit()
{
   date = newDate;
   lastCommitTime = millis();
 808071e:	60e0      	str	r0, [r4, #12]
   valid = updated = true;
 8080720:	7063      	strb	r3, [r4, #1]
 8080722:	7023      	strb	r3, [r4, #0]
 8080724:	bd10      	pop	{r4, pc}

08080726 <_ZN11TinyGPSTime6commitEv>:
}

void TinyGPSTime::commit()
{
 8080726:	b510      	push	{r4, lr}
   time = newTime;
 8080728:	6883      	ldr	r3, [r0, #8]
   lastCommitTime = millis();
   valid = updated = true;
}

void TinyGPSTime::commit()
{
 808072a:	4604      	mov	r4, r0
   time = newTime;
 808072c:	6043      	str	r3, [r0, #4]
 808072e:	f000 fa2f 	bl	8080b90 <HAL_Timer_Get_Milli_Seconds>
   lastCommitTime = millis();
   valid = updated = true;
 8080732:	2301      	movs	r3, #1
}

void TinyGPSTime::commit()
{
   time = newTime;
   lastCommitTime = millis();
 8080734:	60e0      	str	r0, [r4, #12]
   valid = updated = true;
 8080736:	7063      	strb	r3, [r4, #1]
 8080738:	7023      	strb	r3, [r4, #0]
 808073a:	bd10      	pop	{r4, pc}

0808073c <_ZN11TinyGPSTime7setTimeEPKc>:
}

void TinyGPSTime::setTime(const char *term)
{
 808073c:	b510      	push	{r4, lr}
 808073e:	4604      	mov	r4, r0
   newTime = (uint32_t)TinyGPSPlus::parseDecimal(term);
 8080740:	4608      	mov	r0, r1
 8080742:	f7ff ff36 	bl	80805b2 <_ZN11TinyGPSPlus12parseDecimalEPKc>
 8080746:	60a0      	str	r0, [r4, #8]
 8080748:	bd10      	pop	{r4, pc}

0808074a <_ZN11TinyGPSDate7setDateEPKc>:
}

void TinyGPSDate::setDate(const char *term)
{
 808074a:	b510      	push	{r4, lr}
 808074c:	4604      	mov	r4, r0
   newDate = atol(term);
 808074e:	4608      	mov	r0, r1
 8080750:	f001 fe72 	bl	8082438 <atol>
 8080754:	60a0      	str	r0, [r4, #8]
 8080756:	bd10      	pop	{r4, pc}

08080758 <_ZN11TinyGPSDate4yearEv>:
}

uint16_t TinyGPSDate::year()
{
   updated = false;
 8080758:	2300      	movs	r3, #0
 808075a:	7043      	strb	r3, [r0, #1]
   uint16_t year = date % 100;
   return year + 2000;
 808075c:	6840      	ldr	r0, [r0, #4]
 808075e:	2264      	movs	r2, #100	; 0x64
 8080760:	fbb0 f3f2 	udiv	r3, r0, r2
 8080764:	fb02 0013 	mls	r0, r2, r3, r0
 8080768:	f500 60fa 	add.w	r0, r0, #2000	; 0x7d0
}
 808076c:	b280      	uxth	r0, r0
 808076e:	4770      	bx	lr

08080770 <_ZN11TinyGPSDate5monthEv>:

uint8_t TinyGPSDate::month()
{
   updated = false;
 8080770:	2300      	movs	r3, #0
 8080772:	7043      	strb	r3, [r0, #1]
   return (date / 100) % 100;
 8080774:	6843      	ldr	r3, [r0, #4]
 8080776:	2064      	movs	r0, #100	; 0x64
 8080778:	fbb3 f3f0 	udiv	r3, r3, r0
 808077c:	fbb3 f2f0 	udiv	r2, r3, r0
 8080780:	fb00 3012 	mls	r0, r0, r2, r3
}
 8080784:	b2c0      	uxtb	r0, r0
 8080786:	4770      	bx	lr

08080788 <_ZN11TinyGPSDate3dayEv>:

uint8_t TinyGPSDate::day()
{
   updated = false;
 8080788:	2300      	movs	r3, #0
 808078a:	7043      	strb	r3, [r0, #1]
   return date / 10000;
 808078c:	6843      	ldr	r3, [r0, #4]
 808078e:	f242 7010 	movw	r0, #10000	; 0x2710
 8080792:	fbb3 f0f0 	udiv	r0, r3, r0
}
 8080796:	b2c0      	uxtb	r0, r0
 8080798:	4770      	bx	lr
	...

0808079c <_ZN11TinyGPSTime4hourEv>:

uint8_t TinyGPSTime::hour()
{
   updated = false;
 808079c:	2300      	movs	r3, #0
 808079e:	7043      	strb	r3, [r0, #1]
   return time / 1000000;
 80807a0:	6843      	ldr	r3, [r0, #4]
 80807a2:	4802      	ldr	r0, [pc, #8]	; (80807ac <_ZN11TinyGPSTime4hourEv+0x10>)
 80807a4:	fbb3 f0f0 	udiv	r0, r3, r0
}
 80807a8:	b2c0      	uxtb	r0, r0
 80807aa:	4770      	bx	lr
 80807ac:	000f4240 	.word	0x000f4240

080807b0 <_ZN11TinyGPSTime6minuteEv>:

uint8_t TinyGPSTime::minute()
{
   updated = false;
 80807b0:	2300      	movs	r3, #0
 80807b2:	7043      	strb	r3, [r0, #1]
   return (time / 10000) % 100;
 80807b4:	6843      	ldr	r3, [r0, #4]
 80807b6:	f242 7010 	movw	r0, #10000	; 0x2710
 80807ba:	fbb3 f3f0 	udiv	r3, r3, r0
 80807be:	2064      	movs	r0, #100	; 0x64
 80807c0:	fbb3 f2f0 	udiv	r2, r3, r0
 80807c4:	fb00 3012 	mls	r0, r0, r2, r3
}
 80807c8:	b2c0      	uxtb	r0, r0
 80807ca:	4770      	bx	lr

080807cc <_ZN11TinyGPSTime6secondEv>:

uint8_t TinyGPSTime::second()
{
   updated = false;
 80807cc:	2300      	movs	r3, #0
 80807ce:	7043      	strb	r3, [r0, #1]
   return (time / 100) % 100;
 80807d0:	6843      	ldr	r3, [r0, #4]
 80807d2:	2064      	movs	r0, #100	; 0x64
 80807d4:	fbb3 f3f0 	udiv	r3, r3, r0
 80807d8:	fbb3 f2f0 	udiv	r2, r3, r0
 80807dc:	fb00 3012 	mls	r0, r0, r2, r3
}
 80807e0:	b2c0      	uxtb	r0, r0
 80807e2:	4770      	bx	lr

080807e4 <_ZN11TinyGPSTime11centisecondEv>:

uint8_t TinyGPSTime::centisecond()
{
   updated = false;
 80807e4:	2300      	movs	r3, #0
 80807e6:	7043      	strb	r3, [r0, #1]
   return time % 100;
 80807e8:	6840      	ldr	r0, [r0, #4]
 80807ea:	2264      	movs	r2, #100	; 0x64
 80807ec:	fbb0 f3f2 	udiv	r3, r0, r2
 80807f0:	fb02 0013 	mls	r0, r2, r3, r0
}
 80807f4:	b2c0      	uxtb	r0, r0
 80807f6:	4770      	bx	lr

080807f8 <_ZN14TinyGPSDecimal6commitEv>:

void TinyGPSDecimal::commit()
{
 80807f8:	b510      	push	{r4, lr}
   val = newval;
 80807fa:	68c3      	ldr	r3, [r0, #12]
   updated = false;
   return time % 100;
}

void TinyGPSDecimal::commit()
{
 80807fc:	4604      	mov	r4, r0
   val = newval;
 80807fe:	6083      	str	r3, [r0, #8]
 8080800:	f000 f9c6 	bl	8080b90 <HAL_Timer_Get_Milli_Seconds>
   lastCommitTime = millis();
   valid = updated = true;
 8080804:	2301      	movs	r3, #1
}

void TinyGPSDecimal::commit()
{
   val = newval;
   lastCommitTime = millis();
 8080806:	6060      	str	r0, [r4, #4]
   valid = updated = true;
 8080808:	7063      	strb	r3, [r4, #1]
 808080a:	7023      	strb	r3, [r4, #0]
 808080c:	bd10      	pop	{r4, pc}

0808080e <_ZN14TinyGPSDecimal3setEPKc>:
}

void TinyGPSDecimal::set(const char *term)
{
 808080e:	b510      	push	{r4, lr}
 8080810:	4604      	mov	r4, r0
   newval = TinyGPSPlus::parseDecimal(term);
 8080812:	4608      	mov	r0, r1
 8080814:	f7ff fecd 	bl	80805b2 <_ZN11TinyGPSPlus12parseDecimalEPKc>
 8080818:	60e0      	str	r0, [r4, #12]
 808081a:	bd10      	pop	{r4, pc}

0808081c <_ZN14TinyGPSInteger6commitEv>:
}

void TinyGPSInteger::commit()
{
 808081c:	b510      	push	{r4, lr}
   val = newval;
 808081e:	68c3      	ldr	r3, [r0, #12]
{
   newval = TinyGPSPlus::parseDecimal(term);
}

void TinyGPSInteger::commit()
{
 8080820:	4604      	mov	r4, r0
   val = newval;
 8080822:	6083      	str	r3, [r0, #8]
 8080824:	f000 f9b4 	bl	8080b90 <HAL_Timer_Get_Milli_Seconds>
   lastCommitTime = millis();
   valid = updated = true;
 8080828:	2301      	movs	r3, #1
}

void TinyGPSInteger::commit()
{
   val = newval;
   lastCommitTime = millis();
 808082a:	6060      	str	r0, [r4, #4]
   valid = updated = true;
 808082c:	7063      	strb	r3, [r4, #1]
 808082e:	7023      	strb	r3, [r4, #0]
 8080830:	bd10      	pop	{r4, pc}

08080832 <_ZN14TinyGPSInteger3setEPKc>:
}

void TinyGPSInteger::set(const char *term)
{
 8080832:	b510      	push	{r4, lr}
 8080834:	4604      	mov	r4, r0
   newval = atol(term);
 8080836:	4608      	mov	r0, r1
 8080838:	f001 fdfe 	bl	8082438 <atol>
 808083c:	60e0      	str	r0, [r4, #12]
 808083e:	bd10      	pop	{r4, pc}

08080840 <_ZN13TinyGPSCustom6commitEv>:
   // Insert this item into the GPS tree
   gps.insertCustom(this, _sentenceName, _termNumber);
}

void TinyGPSCustom::commit()
{
 8080840:	b510      	push	{r4, lr}
   strcpy(this->buffer, this->stagingBuffer);
 8080842:	4601      	mov	r1, r0
   // Insert this item into the GPS tree
   gps.insertCustom(this, _sentenceName, _termNumber);
}

void TinyGPSCustom::commit()
{
 8080844:	4604      	mov	r4, r0
   strcpy(this->buffer, this->stagingBuffer);
 8080846:	3010      	adds	r0, #16
 8080848:	f001 fe4e 	bl	80824e8 <strcpy>
 808084c:	f000 f9a0 	bl	8080b90 <HAL_Timer_Get_Milli_Seconds>
   lastCommitTime = millis();
   valid = updated = true;
 8080850:	2301      	movs	r3, #1
}

void TinyGPSCustom::commit()
{
   strcpy(this->buffer, this->stagingBuffer);
   lastCommitTime = millis();
 8080852:	6220      	str	r0, [r4, #32]
   valid = updated = true;
 8080854:	f884 3025 	strb.w	r3, [r4, #37]	; 0x25
 8080858:	f884 3024 	strb.w	r3, [r4, #36]	; 0x24
 808085c:	bd10      	pop	{r4, pc}

0808085e <_ZN13TinyGPSCustom3setEPKc>:
}

void TinyGPSCustom::set(const char *term)
{
   strncpy(this->stagingBuffer, term, sizeof(this->stagingBuffer));
 808085e:	2210      	movs	r2, #16
 8080860:	f001 be52 	b.w	8082508 <strncpy>

08080864 <_ZN11TinyGPSPlus16endOfTermHandlerEv>:
#define COMBINE(sentence_type, term_number) (((unsigned)(sentence_type) << 5) | term_number)

// Processes a just-completed term
// Returns true if new sentence has just passed checksum test and is validated
bool TinyGPSPlus::endOfTermHandler()
{
 8080864:	b5f8      	push	{r3, r4, r5, r6, r7, lr}
  // If it's the checksum term, and the checksum checks out, commit
  if (isChecksumTerm)
 8080866:	f890 50a9 	ldrb.w	r5, [r0, #169]	; 0xa9
#define COMBINE(sentence_type, term_number) (((unsigned)(sentence_type) << 5) | term_number)

// Processes a just-completed term
// Returns true if new sentence has just passed checksum test and is validated
bool TinyGPSPlus::endOfTermHandler()
{
 808086a:	4604      	mov	r4, r0
  // If it's the checksum term, and the checksum checks out, commit
  if (isChecksumTerm)
 808086c:	2d00      	cmp	r5, #0
 808086e:	d067      	beq.n	8080940 <_ZN11TinyGPSPlus16endOfTermHandlerEv+0xdc>
  {
    byte checksum = 16 * fromHex(term[0]) + fromHex(term[1]);
 8080870:	f890 10aa 	ldrb.w	r1, [r0, #170]	; 0xaa
 8080874:	f7ff fe8d 	bl	8080592 <_ZN11TinyGPSPlus7fromHexEc>
 8080878:	f894 10ab 	ldrb.w	r1, [r4, #171]	; 0xab
 808087c:	4602      	mov	r2, r0
 808087e:	4620      	mov	r0, r4
 8080880:	f7ff fe87 	bl	8080592 <_ZN11TinyGPSPlus7fromHexEc>
    if (checksum == parity)
 8080884:	f894 30a8 	ldrb.w	r3, [r4, #168]	; 0xa8
 8080888:	eb00 1002 	add.w	r0, r0, r2, lsl #4
 808088c:	b2c0      	uxtb	r0, r0
 808088e:	4283      	cmp	r3, r0
 8080890:	d14f      	bne.n	8080932 <_ZN11TinyGPSPlus16endOfTermHandlerEv+0xce>
    {
      passedChecksumCount++;
 8080892:	f8d4 30d4 	ldr.w	r3, [r4, #212]	; 0xd4
 8080896:	3301      	adds	r3, #1
 8080898:	f8c4 30d4 	str.w	r3, [r4, #212]	; 0xd4
      if (sentenceHasFix)
 808089c:	f894 30bc 	ldrb.w	r3, [r4, #188]	; 0xbc
 80808a0:	b123      	cbz	r3, 80808ac <_ZN11TinyGPSPlus16endOfTermHandlerEv+0x48>
        ++sentencesWithFixCount;
 80808a2:	f8d4 30cc 	ldr.w	r3, [r4, #204]	; 0xcc
 80808a6:	3301      	adds	r3, #1
 80808a8:	f8c4 30cc 	str.w	r3, [r4, #204]	; 0xcc

      switch(curSentenceType)
 80808ac:	f894 30b9 	ldrb.w	r3, [r4, #185]	; 0xb9
 80808b0:	b1b3      	cbz	r3, 80808e0 <_ZN11TinyGPSPlus16endOfTermHandlerEv+0x7c>
 80808b2:	2b01      	cmp	r3, #1
 80808b4:	d12a      	bne.n	808090c <_ZN11TinyGPSPlus16endOfTermHandlerEv+0xa8>
      {
      case GPS_SENTENCE_GPRMC:
        date.commit();
 80808b6:	f104 0038 	add.w	r0, r4, #56	; 0x38
 80808ba:	f7ff ff29 	bl	8080710 <_ZN11TinyGPSDate6commitEv>
        time.commit();
 80808be:	f104 0048 	add.w	r0, r4, #72	; 0x48
 80808c2:	f7ff ff30 	bl	8080726 <_ZN11TinyGPSTime6commitEv>
        if (sentenceHasFix)
 80808c6:	f894 30bc 	ldrb.w	r3, [r4, #188]	; 0xbc
 80808ca:	b1fb      	cbz	r3, 808090c <_ZN11TinyGPSPlus16endOfTermHandlerEv+0xa8>
        {
           location.commit();
 80808cc:	4620      	mov	r0, r4
 80808ce:	f7ff fec5 	bl	808065c <_ZN15TinyGPSLocation6commitEv>
           speed.commit();
 80808d2:	f104 0058 	add.w	r0, r4, #88	; 0x58
 80808d6:	f7ff ff8f 	bl	80807f8 <_ZN14TinyGPSDecimal6commitEv>
           course.commit();
 80808da:	f104 0068 	add.w	r0, r4, #104	; 0x68
 80808de:	e013      	b.n	8080908 <_ZN11TinyGPSPlus16endOfTermHandlerEv+0xa4>
        }
        break;
      case GPS_SENTENCE_GPGGA:
        time.commit();
 80808e0:	f104 0048 	add.w	r0, r4, #72	; 0x48
 80808e4:	f7ff ff1f 	bl	8080726 <_ZN11TinyGPSTime6commitEv>
        if (sentenceHasFix)
 80808e8:	f894 30bc 	ldrb.w	r3, [r4, #188]	; 0xbc
 80808ec:	b133      	cbz	r3, 80808fc <_ZN11TinyGPSPlus16endOfTermHandlerEv+0x98>
        {
          location.commit();
 80808ee:	4620      	mov	r0, r4
 80808f0:	f7ff feb4 	bl	808065c <_ZN15TinyGPSLocation6commitEv>
          altitude.commit();
 80808f4:	f104 0078 	add.w	r0, r4, #120	; 0x78
 80808f8:	f7ff ff7e 	bl	80807f8 <_ZN14TinyGPSDecimal6commitEv>
        }
        satellites.commit();
 80808fc:	f104 0088 	add.w	r0, r4, #136	; 0x88
 8080900:	f7ff ff8c 	bl	808081c <_ZN14TinyGPSInteger6commitEv>
        hdop.commit();
 8080904:	f104 0098 	add.w	r0, r4, #152	; 0x98
 8080908:	f7ff ff76 	bl	80807f8 <_ZN14TinyGPSDecimal6commitEv>
        break;
      }

      // Commit all custom listeners of this sentence type
      for (TinyGPSCustom *p = customCandidates; p != NULL && strcmp(p->sentenceName, customCandidates->sentenceName) == 0; p = p->next)
 808090c:	f8d4 60c4 	ldr.w	r6, [r4, #196]	; 0xc4
 8080910:	2e00      	cmp	r6, #0
 8080912:	f000 80c5 	beq.w	8080aa0 <_ZN11TinyGPSPlus16endOfTermHandlerEv+0x23c>
 8080916:	f8d4 30c4 	ldr.w	r3, [r4, #196]	; 0xc4
 808091a:	6ab0      	ldr	r0, [r6, #40]	; 0x28
 808091c:	6a99      	ldr	r1, [r3, #40]	; 0x28
 808091e:	f001 fdd9 	bl	80824d4 <strcmp>
 8080922:	2800      	cmp	r0, #0
 8080924:	f040 80bc 	bne.w	8080aa0 <_ZN11TinyGPSPlus16endOfTermHandlerEv+0x23c>
         p->commit();
 8080928:	4630      	mov	r0, r6
 808092a:	f7ff ff89 	bl	8080840 <_ZN13TinyGPSCustom6commitEv>
        hdop.commit();
        break;
      }

      // Commit all custom listeners of this sentence type
      for (TinyGPSCustom *p = customCandidates; p != NULL && strcmp(p->sentenceName, customCandidates->sentenceName) == 0; p = p->next)
 808092e:	6b36      	ldr	r6, [r6, #48]	; 0x30
 8080930:	e7ee      	b.n	8080910 <_ZN11TinyGPSPlus16endOfTermHandlerEv+0xac>
      return true;
    }

    else
    {
      ++failedChecksumCount;
 8080932:	f8d4 30d0 	ldr.w	r3, [r4, #208]	; 0xd0
    }

    return false;
 8080936:	2500      	movs	r5, #0
      return true;
    }

    else
    {
      ++failedChecksumCount;
 8080938:	3301      	adds	r3, #1
 808093a:	f8c4 30d0 	str.w	r3, [r4, #208]	; 0xd0
    }

    return false;
 808093e:	e0af      	b.n	8080aa0 <_ZN11TinyGPSPlus16endOfTermHandlerEv+0x23c>
  }

  // the first term determines the sentence type
  if (curTermNumber == 0)
 8080940:	f890 20ba 	ldrb.w	r2, [r0, #186]	; 0xba
 8080944:	bb2a      	cbnz	r2, 8080992 <_ZN11TinyGPSPlus16endOfTermHandlerEv+0x12e>
  {
    if (!strcmp(term, _GPRMCterm))
 8080946:	f100 07aa 	add.w	r7, r0, #170	; 0xaa
 808094a:	4956      	ldr	r1, [pc, #344]	; (8080aa4 <_ZN11TinyGPSPlus16endOfTermHandlerEv+0x240>)
 808094c:	4638      	mov	r0, r7
 808094e:	f001 fdc1 	bl	80824d4 <strcmp>
 8080952:	b908      	cbnz	r0, 8080958 <_ZN11TinyGPSPlus16endOfTermHandlerEv+0xf4>
      curSentenceType = GPS_SENTENCE_GPRMC;
 8080954:	2301      	movs	r3, #1
 8080956:	e008      	b.n	808096a <_ZN11TinyGPSPlus16endOfTermHandlerEv+0x106>
    else if (!strcmp(term, _GPGGAterm))
 8080958:	4953      	ldr	r1, [pc, #332]	; (8080aa8 <_ZN11TinyGPSPlus16endOfTermHandlerEv+0x244>)
 808095a:	4638      	mov	r0, r7
 808095c:	f001 fdba 	bl	80824d4 <strcmp>
 8080960:	b910      	cbnz	r0, 8080968 <_ZN11TinyGPSPlus16endOfTermHandlerEv+0x104>
      curSentenceType = GPS_SENTENCE_GPGGA;
 8080962:	f884 50b9 	strb.w	r5, [r4, #185]	; 0xb9
 8080966:	e002      	b.n	808096e <_ZN11TinyGPSPlus16endOfTermHandlerEv+0x10a>
    else
      curSentenceType = GPS_SENTENCE_OTHER;
 8080968:	2302      	movs	r3, #2
 808096a:	f884 30b9 	strb.w	r3, [r4, #185]	; 0xb9

    // Any custom candidates of this sentence type?
    for (customCandidates = customElts; customCandidates != NULL && strcmp(customCandidates->sentenceName, term) < 0; customCandidates = customCandidates->next);
 808096e:	f8d4 30c0 	ldr.w	r3, [r4, #192]	; 0xc0
 8080972:	f8c4 30c4 	str.w	r3, [r4, #196]	; 0xc4
 8080976:	f8d4 60c4 	ldr.w	r6, [r4, #196]	; 0xc4
 808097a:	2e00      	cmp	r6, #0
 808097c:	f000 8090 	beq.w	8080aa0 <_ZN11TinyGPSPlus16endOfTermHandlerEv+0x23c>
 8080980:	4639      	mov	r1, r7
 8080982:	6ab0      	ldr	r0, [r6, #40]	; 0x28
 8080984:	f001 fda6 	bl	80824d4 <strcmp>
 8080988:	2800      	cmp	r0, #0
 808098a:	f280 8085 	bge.w	8080a98 <_ZN11TinyGPSPlus16endOfTermHandlerEv+0x234>
 808098e:	6b33      	ldr	r3, [r6, #48]	; 0x30
 8080990:	e7ef      	b.n	8080972 <_ZN11TinyGPSPlus16endOfTermHandlerEv+0x10e>
       customCandidates = NULL;

    return false;
  }

  if (curSentenceType != GPS_SENTENCE_OTHER && term[0])
 8080992:	f890 10b9 	ldrb.w	r1, [r0, #185]	; 0xb9
 8080996:	2902      	cmp	r1, #2
 8080998:	d066      	beq.n	8080a68 <_ZN11TinyGPSPlus16endOfTermHandlerEv+0x204>
 808099a:	f890 30aa 	ldrb.w	r3, [r0, #170]	; 0xaa
 808099e:	2b00      	cmp	r3, #0
 80809a0:	d062      	beq.n	8080a68 <_ZN11TinyGPSPlus16endOfTermHandlerEv+0x204>
    switch(COMBINE(curSentenceType, curTermNumber))
 80809a2:	ea42 1241 	orr.w	r2, r2, r1, lsl #5
 80809a6:	3a01      	subs	r2, #1
 80809a8:	2a28      	cmp	r2, #40	; 0x28
 80809aa:	d85d      	bhi.n	8080a68 <_ZN11TinyGPSPlus16endOfTermHandlerEv+0x204>
 80809ac:	e8df f002 	tbb	[pc, r2]
 80809b0:	2a232015 	.word	0x2a232015
 80809b4:	534d4631 	.word	0x534d4631
 80809b8:	5c5c5c57 	.word	0x5c5c5c57
 80809bc:	5c5c5c5c 	.word	0x5c5c5c5c
 80809c0:	5c5c5c5c 	.word	0x5c5c5c5c
 80809c4:	5c5c5c5c 	.word	0x5c5c5c5c
 80809c8:	5c5c5c5c 	.word	0x5c5c5c5c
 80809cc:	5c5c5c5c 	.word	0x5c5c5c5c
 80809d0:	23201b15 	.word	0x23201b15
 80809d4:	3c38312a 	.word	0x3c38312a
 80809d8:	40          	.byte	0x40
 80809d9:	00          	.byte	0x00
  {
    case COMBINE(GPS_SENTENCE_GPRMC, 1): // Time in both sentences
    case COMBINE(GPS_SENTENCE_GPGGA, 1):
      time.setTime(term);
 80809da:	f100 01aa 	add.w	r1, r0, #170	; 0xaa
 80809de:	3048      	adds	r0, #72	; 0x48
 80809e0:	f7ff feac 	bl	808073c <_ZN11TinyGPSTime7setTimeEPKc>
      break;
 80809e4:	e040      	b.n	8080a68 <_ZN11TinyGPSPlus16endOfTermHandlerEv+0x204>
    case COMBINE(GPS_SENTENCE_GPRMC, 2): // GPRMC validity
      sentenceHasFix = term[0] == 'A';
 80809e6:	f1a3 0041 	sub.w	r0, r3, #65	; 0x41
 80809ea:	4243      	negs	r3, r0
 80809ec:	4143      	adcs	r3, r0
 80809ee:	e029      	b.n	8080a44 <_ZN11TinyGPSPlus16endOfTermHandlerEv+0x1e0>
   valid = updated = true;
}

void TinyGPSLocation::setLatitude(const char *term)
{
   TinyGPSPlus::parseDegrees(term, rawNewLatData);
 80809f0:	f100 011c 	add.w	r1, r0, #28
 80809f4:	e008      	b.n	8080a08 <_ZN11TinyGPSPlus16endOfTermHandlerEv+0x1a4>
    case COMBINE(GPS_SENTENCE_GPGGA, 2):
      location.setLatitude(term);
      break;
    case COMBINE(GPS_SENTENCE_GPRMC, 4): // N/S
    case COMBINE(GPS_SENTENCE_GPGGA, 3):
      location.rawNewLatData.negative = term[0] == 'S';
 80809f6:	f1a3 0153 	sub.w	r1, r3, #83	; 0x53
 80809fa:	424b      	negs	r3, r1
 80809fc:	414b      	adcs	r3, r1
 80809fe:	f880 3024 	strb.w	r3, [r0, #36]	; 0x24
      break;
 8080a02:	e031      	b.n	8080a68 <_ZN11TinyGPSPlus16endOfTermHandlerEv+0x204>
   TinyGPSPlus::parseDegrees(term, rawNewLatData);
}

void TinyGPSLocation::setLongitude(const char *term)
{
   TinyGPSPlus::parseDegrees(term, rawNewLngData);
 8080a04:	f100 0128 	add.w	r1, r0, #40	; 0x28
 8080a08:	f104 00aa 	add.w	r0, r4, #170	; 0xaa
 8080a0c:	f7ff fdf6 	bl	80805fc <_ZN11TinyGPSPlus12parseDegreesEPKcR10RawDegrees>
 8080a10:	e02a      	b.n	8080a68 <_ZN11TinyGPSPlus16endOfTermHandlerEv+0x204>
    case COMBINE(GPS_SENTENCE_GPGGA, 4):
      location.setLongitude(term);
      break;
    case COMBINE(GPS_SENTENCE_GPRMC, 6): // E/W
    case COMBINE(GPS_SENTENCE_GPGGA, 5):
      location.rawNewLngData.negative = term[0] == 'W';
 8080a12:	f1a3 0257 	sub.w	r2, r3, #87	; 0x57
 8080a16:	4253      	negs	r3, r2
 8080a18:	4153      	adcs	r3, r2
 8080a1a:	f880 3030 	strb.w	r3, [r0, #48]	; 0x30
      break;
 8080a1e:	e023      	b.n	8080a68 <_ZN11TinyGPSPlus16endOfTermHandlerEv+0x204>
    case COMBINE(GPS_SENTENCE_GPRMC, 7): // Speed (GPRMC)
      speed.set(term);
 8080a20:	f100 01aa 	add.w	r1, r0, #170	; 0xaa
 8080a24:	3058      	adds	r0, #88	; 0x58
 8080a26:	e01d      	b.n	8080a64 <_ZN11TinyGPSPlus16endOfTermHandlerEv+0x200>
      break;
    case COMBINE(GPS_SENTENCE_GPRMC, 8): // Course (GPRMC)
      course.set(term);
 8080a28:	f100 01aa 	add.w	r1, r0, #170	; 0xaa
 8080a2c:	3068      	adds	r0, #104	; 0x68
 8080a2e:	e019      	b.n	8080a64 <_ZN11TinyGPSPlus16endOfTermHandlerEv+0x200>
      break;
    case COMBINE(GPS_SENTENCE_GPRMC, 9): // Date (GPRMC)
      date.setDate(term);
 8080a30:	f100 01aa 	add.w	r1, r0, #170	; 0xaa
 8080a34:	3038      	adds	r0, #56	; 0x38
 8080a36:	f7ff fe88 	bl	808074a <_ZN11TinyGPSDate7setDateEPKc>
      break;
 8080a3a:	e015      	b.n	8080a68 <_ZN11TinyGPSPlus16endOfTermHandlerEv+0x204>
    case COMBINE(GPS_SENTENCE_GPGGA, 6): // Fix data (GPGGA)
      sentenceHasFix = term[0] > '0';
 8080a3c:	2b30      	cmp	r3, #48	; 0x30
 8080a3e:	bf94      	ite	ls
 8080a40:	2300      	movls	r3, #0
 8080a42:	2301      	movhi	r3, #1
 8080a44:	f884 30bc 	strb.w	r3, [r4, #188]	; 0xbc
      break;
 8080a48:	e00e      	b.n	8080a68 <_ZN11TinyGPSPlus16endOfTermHandlerEv+0x204>
    case COMBINE(GPS_SENTENCE_GPGGA, 7): // Satellites used (GPGGA)
      satellites.set(term);
 8080a4a:	f100 01aa 	add.w	r1, r0, #170	; 0xaa
 8080a4e:	3088      	adds	r0, #136	; 0x88
 8080a50:	f7ff feef 	bl	8080832 <_ZN14TinyGPSInteger3setEPKc>
      break;
 8080a54:	e008      	b.n	8080a68 <_ZN11TinyGPSPlus16endOfTermHandlerEv+0x204>
    case COMBINE(GPS_SENTENCE_GPGGA, 8): // HDOP
      hdop.set(term);
 8080a56:	f100 01aa 	add.w	r1, r0, #170	; 0xaa
 8080a5a:	3098      	adds	r0, #152	; 0x98
 8080a5c:	e002      	b.n	8080a64 <_ZN11TinyGPSPlus16endOfTermHandlerEv+0x200>
      break;
    case COMBINE(GPS_SENTENCE_GPGGA, 9): // Altitude (GPGGA)
      altitude.set(term);
 8080a5e:	f100 01aa 	add.w	r1, r0, #170	; 0xaa
 8080a62:	3078      	adds	r0, #120	; 0x78
 8080a64:	f7ff fed3 	bl	808080e <_ZN14TinyGPSDecimal3setEPKc>
      break;
  }

  // Set custom values as needed
  for (TinyGPSCustom *p = customCandidates; p != NULL && strcmp(p->sentenceName, customCandidates->sentenceName) == 0 && p->termNumber <= curTermNumber; p = p->next)
 8080a68:	f8d4 60c4 	ldr.w	r6, [r4, #196]	; 0xc4
    if (p->termNumber == curTermNumber)
         p->set(term);
 8080a6c:	f104 07aa 	add.w	r7, r4, #170	; 0xaa
      altitude.set(term);
      break;
  }

  // Set custom values as needed
  for (TinyGPSCustom *p = customCandidates; p != NULL && strcmp(p->sentenceName, customCandidates->sentenceName) == 0 && p->termNumber <= curTermNumber; p = p->next)
 8080a70:	b1b6      	cbz	r6, 8080aa0 <_ZN11TinyGPSPlus16endOfTermHandlerEv+0x23c>
 8080a72:	f8d4 30c4 	ldr.w	r3, [r4, #196]	; 0xc4
 8080a76:	6ab0      	ldr	r0, [r6, #40]	; 0x28
 8080a78:	6a99      	ldr	r1, [r3, #40]	; 0x28
 8080a7a:	f001 fd2b 	bl	80824d4 <strcmp>
 8080a7e:	b978      	cbnz	r0, 8080aa0 <_ZN11TinyGPSPlus16endOfTermHandlerEv+0x23c>
 8080a80:	6af2      	ldr	r2, [r6, #44]	; 0x2c
 8080a82:	f894 30ba 	ldrb.w	r3, [r4, #186]	; 0xba
 8080a86:	429a      	cmp	r2, r3
 8080a88:	dc0a      	bgt.n	8080aa0 <_ZN11TinyGPSPlus16endOfTermHandlerEv+0x23c>
    if (p->termNumber == curTermNumber)
 8080a8a:	d103      	bne.n	8080a94 <_ZN11TinyGPSPlus16endOfTermHandlerEv+0x230>
         p->set(term);
 8080a8c:	4639      	mov	r1, r7
 8080a8e:	4630      	mov	r0, r6
 8080a90:	f7ff fee5 	bl	808085e <_ZN13TinyGPSCustom3setEPKc>
      altitude.set(term);
      break;
  }

  // Set custom values as needed
  for (TinyGPSCustom *p = customCandidates; p != NULL && strcmp(p->sentenceName, customCandidates->sentenceName) == 0 && p->termNumber <= curTermNumber; p = p->next)
 8080a94:	6b36      	ldr	r6, [r6, #48]	; 0x30
 8080a96:	e7eb      	b.n	8080a70 <_ZN11TinyGPSPlus16endOfTermHandlerEv+0x20c>
    else
      curSentenceType = GPS_SENTENCE_OTHER;

    // Any custom candidates of this sentence type?
    for (customCandidates = customElts; customCandidates != NULL && strcmp(customCandidates->sentenceName, term) < 0; customCandidates = customCandidates->next);
    if (customCandidates != NULL && strcmp(customCandidates->sentenceName, term) > 0)
 8080a98:	d002      	beq.n	8080aa0 <_ZN11TinyGPSPlus16endOfTermHandlerEv+0x23c>
       customCandidates = NULL;
 8080a9a:	2300      	movs	r3, #0
 8080a9c:	f8c4 30c4 	str.w	r3, [r4, #196]	; 0xc4
  for (TinyGPSCustom *p = customCandidates; p != NULL && strcmp(p->sentenceName, customCandidates->sentenceName) == 0 && p->termNumber <= curTermNumber; p = p->next)
    if (p->termNumber == curTermNumber)
         p->set(term);

  return false;
}
 8080aa0:	4628      	mov	r0, r5
 8080aa2:	bdf8      	pop	{r3, r4, r5, r6, r7, pc}
 8080aa4:	080826a1 	.word	0x080826a1
 8080aa8:	080826a7 	.word	0x080826a7

08080aac <_ZN11TinyGPSPlus6encodeEc>:
//
// public methods
//

bool TinyGPSPlus::encode(char c)
{
 8080aac:	b538      	push	{r3, r4, r5, lr}
  ++encodedCharCount;
 8080aae:	f8d0 30c8 	ldr.w	r3, [r0, #200]	; 0xc8

  switch(c)
 8080ab2:	2924      	cmp	r1, #36	; 0x24
// public methods
//

bool TinyGPSPlus::encode(char c)
{
  ++encodedCharCount;
 8080ab4:	f103 0301 	add.w	r3, r3, #1
//
// public methods
//

bool TinyGPSPlus::encode(char c)
{
 8080ab8:	4604      	mov	r4, r0
 8080aba:	460d      	mov	r5, r1
  ++encodedCharCount;
 8080abc:	f8c0 30c8 	str.w	r3, [r0, #200]	; 0xc8

  switch(c)
 8080ac0:	d02a      	beq.n	8080b18 <_ZN11TinyGPSPlus6encodeEc+0x6c>
 8080ac2:	f890 30bb 	ldrb.w	r3, [r0, #187]	; 0xbb
 8080ac6:	d804      	bhi.n	8080ad2 <_ZN11TinyGPSPlus6encodeEc+0x26>
 8080ac8:	290a      	cmp	r1, #10
 8080aca:	d00c      	beq.n	8080ae6 <_ZN11TinyGPSPlus6encodeEc+0x3a>
 8080acc:	290d      	cmp	r1, #13
 8080ace:	d132      	bne.n	8080b36 <_ZN11TinyGPSPlus6encodeEc+0x8a>
 8080ad0:	e009      	b.n	8080ae6 <_ZN11TinyGPSPlus6encodeEc+0x3a>
 8080ad2:	292a      	cmp	r1, #42	; 0x2a
 8080ad4:	d007      	beq.n	8080ae6 <_ZN11TinyGPSPlus6encodeEc+0x3a>
 8080ad6:	292c      	cmp	r1, #44	; 0x2c
 8080ad8:	d12d      	bne.n	8080b36 <_ZN11TinyGPSPlus6encodeEc+0x8a>
  {
  case ',': // term terminators
    parity ^= (uint8_t)c;
 8080ada:	f890 20a8 	ldrb.w	r2, [r0, #168]	; 0xa8
 8080ade:	f082 022c 	eor.w	r2, r2, #44	; 0x2c
 8080ae2:	f880 20a8 	strb.w	r2, [r0, #168]	; 0xa8
  case '\r':
  case '\n':
  case '*':
    {
      bool isValidSentence = false;
      if (curTermOffset < sizeof(term))
 8080ae6:	2b0e      	cmp	r3, #14
 8080ae8:	f04f 0000 	mov.w	r0, #0
 8080aec:	d805      	bhi.n	8080afa <_ZN11TinyGPSPlus6encodeEc+0x4e>
      {
        term[curTermOffset] = 0;
 8080aee:	4423      	add	r3, r4
 8080af0:	f883 00aa 	strb.w	r0, [r3, #170]	; 0xaa
        isValidSentence = endOfTermHandler();
 8080af4:	4620      	mov	r0, r4
 8080af6:	f7ff feb5 	bl	8080864 <_ZN11TinyGPSPlus16endOfTermHandlerEv>
      }
      ++curTermNumber;
 8080afa:	f894 30ba 	ldrb.w	r3, [r4, #186]	; 0xba
 8080afe:	3301      	adds	r3, #1
 8080b00:	f884 30ba 	strb.w	r3, [r4, #186]	; 0xba
      curTermOffset = 0;
 8080b04:	2300      	movs	r3, #0
 8080b06:	f884 30bb 	strb.w	r3, [r4, #187]	; 0xbb
      isChecksumTerm = c == '*';
 8080b0a:	f1a5 032a 	sub.w	r3, r5, #42	; 0x2a
 8080b0e:	425d      	negs	r5, r3
 8080b10:	415d      	adcs	r5, r3
 8080b12:	f884 50a9 	strb.w	r5, [r4, #169]	; 0xa9
      return isValidSentence;
 8080b16:	bd38      	pop	{r3, r4, r5, pc}
    }
    break;

  case '$': // sentence begin
    curTermNumber = curTermOffset = 0;
 8080b18:	2000      	movs	r0, #0
    parity = 0;
    curSentenceType = GPS_SENTENCE_OTHER;
 8080b1a:	2302      	movs	r3, #2
      return isValidSentence;
    }
    break;

  case '$': // sentence begin
    curTermNumber = curTermOffset = 0;
 8080b1c:	f884 00bb 	strb.w	r0, [r4, #187]	; 0xbb
 8080b20:	f884 00ba 	strb.w	r0, [r4, #186]	; 0xba
    parity = 0;
 8080b24:	f884 00a8 	strb.w	r0, [r4, #168]	; 0xa8
    curSentenceType = GPS_SENTENCE_OTHER;
 8080b28:	f884 30b9 	strb.w	r3, [r4, #185]	; 0xb9
    isChecksumTerm = false;
 8080b2c:	f884 00a9 	strb.w	r0, [r4, #169]	; 0xa9
    sentenceHasFix = false;
 8080b30:	f884 00bc 	strb.w	r0, [r4, #188]	; 0xbc
    return false;
 8080b34:	bd38      	pop	{r3, r4, r5, pc}

  default: // ordinary characters
    if (curTermOffset < sizeof(term) - 1)
 8080b36:	2b0d      	cmp	r3, #13
      term[curTermOffset++] = c;
 8080b38:	bf9f      	itttt	ls
 8080b3a:	1c5a      	addls	r2, r3, #1
 8080b3c:	191b      	addls	r3, r3, r4
 8080b3e:	f884 20bb 	strbls.w	r2, [r4, #187]	; 0xbb
 8080b42:	f883 50aa 	strbls.w	r5, [r3, #170]	; 0xaa
    if (!isChecksumTerm)
 8080b46:	f894 00a9 	ldrb.w	r0, [r4, #169]	; 0xa9
 8080b4a:	b928      	cbnz	r0, 8080b58 <_ZN11TinyGPSPlus6encodeEc+0xac>
      parity ^= c;
 8080b4c:	f894 10a8 	ldrb.w	r1, [r4, #168]	; 0xa8
 8080b50:	404d      	eors	r5, r1
 8080b52:	f884 50a8 	strb.w	r5, [r4, #168]	; 0xa8
 8080b56:	bd38      	pop	{r3, r4, r5, pc}
    return false;
 8080b58:	2000      	movs	r0, #0
  }

  return false;
}
 8080b5a:	bd38      	pop	{r3, r4, r5, pc}

08080b5c <_GLOBAL__sub_I__ZN11TinyGPSPlusC2Ev>:
 8080b5c:	f000 b820 	b.w	8080ba0 <HAL_Pin_Map>

08080b60 <os_mutex_create>:
DYNALIB_FN(8, hal_concurrent, os_timer_create, int(os_timer_t*, unsigned, void(*)(os_timer_t), void*, bool, void*))
DYNALIB_FN(9, hal_concurrent, os_timer_destroy, int(os_timer_t, void*))
DYNALIB_FN(10, hal_concurrent, os_timer_get_id, int(os_timer_t, void**))
DYNALIB_FN(11, hal_concurrent, os_timer_change, int(os_timer_t, os_timer_change_t, bool, unsigned, unsigned, void*))

DYNALIB_FN(12, hal_concurrent, os_mutex_create, int(os_mutex_t*))
 8080b60:	b508      	push	{r3, lr}
 8080b62:	4b02      	ldr	r3, [pc, #8]	; (8080b6c <os_mutex_create+0xc>)
 8080b64:	681b      	ldr	r3, [r3, #0]
 8080b66:	6b1b      	ldr	r3, [r3, #48]	; 0x30
 8080b68:	9301      	str	r3, [sp, #4]
 8080b6a:	bd08      	pop	{r3, pc}
 8080b6c:	080401d0 	.word	0x080401d0

08080b70 <HAL_Core_Get_Last_Reset_Info>:
DYNALIB_FN(22, hal_core, HAL_Set_System_Config, int(hal_system_config_t, const void*, unsigned))
DYNALIB_FN(23, hal_core, HAL_Core_Enter_Safe_Mode, void(void*))
DYNALIB_FN(24, hal_core, HAL_Feature_Get, bool(HAL_Feature))
DYNALIB_FN(25, hal_core, HAL_Feature_Set, int(HAL_Feature, bool))
DYNALIB_FN(26, hal_core, HAL_Core_System_Reset_Ex, void(int, uint32_t, void*))
DYNALIB_FN(27, hal_core, HAL_Core_Get_Last_Reset_Info, int(int*, uint32_t*, void*))
 8080b70:	b508      	push	{r3, lr}
 8080b72:	4b02      	ldr	r3, [pc, #8]	; (8080b7c <HAL_Core_Get_Last_Reset_Info+0xc>)
 8080b74:	681b      	ldr	r3, [r3, #0]
 8080b76:	6edb      	ldr	r3, [r3, #108]	; 0x6c
 8080b78:	9301      	str	r3, [sp, #4]
 8080b7a:	bd08      	pop	{r3, pc}
 8080b7c:	080401b8 	.word	0x080401b8

08080b80 <HAL_RNG_GetRandomNumber>:

DYNALIB_BEGIN(hal)

#if PLATFORM_ID > 3
DYNALIB_FN(0, hal, HAL_RNG_Configuration, void(void))
DYNALIB_FN(1, hal, HAL_RNG_GetRandomNumber, uint32_t(void))
 8080b80:	b508      	push	{r3, lr}
 8080b82:	4b02      	ldr	r3, [pc, #8]	; (8080b8c <HAL_RNG_GetRandomNumber+0xc>)
 8080b84:	681b      	ldr	r3, [r3, #0]
 8080b86:	685b      	ldr	r3, [r3, #4]
 8080b88:	9301      	str	r3, [sp, #4]
 8080b8a:	bd08      	pop	{r3, pc}
 8080b8c:	0804019c 	.word	0x0804019c

08080b90 <HAL_Timer_Get_Milli_Seconds>:
#endif

DYNALIB_FN(BASE_IDX + 0, hal, HAL_Delay_Milliseconds, void(uint32_t))
DYNALIB_FN(BASE_IDX + 1, hal, HAL_Delay_Microseconds, void(uint32_t))
DYNALIB_FN(BASE_IDX + 2, hal, HAL_Timer_Get_Micro_Seconds, system_tick_t(void))
DYNALIB_FN(BASE_IDX + 3, hal, HAL_Timer_Get_Milli_Seconds, system_tick_t(void))
 8080b90:	b508      	push	{r3, lr}
 8080b92:	4b02      	ldr	r3, [pc, #8]	; (8080b9c <HAL_Timer_Get_Milli_Seconds+0xc>)
 8080b94:	681b      	ldr	r3, [r3, #0]
 8080b96:	695b      	ldr	r3, [r3, #20]
 8080b98:	9301      	str	r3, [sp, #4]
 8080b9a:	bd08      	pop	{r3, pc}
 8080b9c:	0804019c 	.word	0x0804019c

08080ba0 <HAL_Pin_Map>:
// New HAL functions must be added to the end of this list.
// GNINRAW

DYNALIB_BEGIN(hal_gpio)

DYNALIB_FN(0, hal_gpio, HAL_Pin_Map, STM32_Pin_Info*(void))
 8080ba0:	b508      	push	{r3, lr}
 8080ba2:	4b02      	ldr	r3, [pc, #8]	; (8080bac <HAL_Pin_Map+0xc>)
 8080ba4:	681b      	ldr	r3, [r3, #0]
 8080ba6:	681b      	ldr	r3, [r3, #0]
 8080ba8:	9301      	str	r3, [sp, #4]
 8080baa:	bd08      	pop	{r3, pc}
 8080bac:	080401b0 	.word	0x080401b0

08080bb0 <HAL_Pin_Mode>:
DYNALIB_FN(1, hal_gpio, HAL_Validate_Pin_Function, PinFunction(pin_t, PinFunction))
DYNALIB_FN(2, hal_gpio, HAL_Pin_Mode, void(pin_t, PinMode))
 8080bb0:	b508      	push	{r3, lr}
 8080bb2:	4b02      	ldr	r3, [pc, #8]	; (8080bbc <HAL_Pin_Mode+0xc>)
 8080bb4:	681b      	ldr	r3, [r3, #0]
 8080bb6:	689b      	ldr	r3, [r3, #8]
 8080bb8:	9301      	str	r3, [sp, #4]
 8080bba:	bd08      	pop	{r3, pc}
 8080bbc:	080401b0 	.word	0x080401b0

08080bc0 <HAL_Get_Pin_Mode>:
DYNALIB_FN(3, hal_gpio, HAL_Get_Pin_Mode, PinMode(pin_t))
 8080bc0:	b508      	push	{r3, lr}
 8080bc2:	4b02      	ldr	r3, [pc, #8]	; (8080bcc <HAL_Get_Pin_Mode+0xc>)
 8080bc4:	681b      	ldr	r3, [r3, #0]
 8080bc6:	68db      	ldr	r3, [r3, #12]
 8080bc8:	9301      	str	r3, [sp, #4]
 8080bca:	bd08      	pop	{r3, pc}
 8080bcc:	080401b0 	.word	0x080401b0

08080bd0 <HAL_GPIO_Write>:
DYNALIB_FN(4, hal_gpio, HAL_GPIO_Write, void(pin_t, uint8_t))
 8080bd0:	b508      	push	{r3, lr}
 8080bd2:	4b02      	ldr	r3, [pc, #8]	; (8080bdc <HAL_GPIO_Write+0xc>)
 8080bd4:	681b      	ldr	r3, [r3, #0]
 8080bd6:	691b      	ldr	r3, [r3, #16]
 8080bd8:	9301      	str	r3, [sp, #4]
 8080bda:	bd08      	pop	{r3, pc}
 8080bdc:	080401b0 	.word	0x080401b0

08080be0 <HAL_I2C_Write_Data>:
DYNALIB_FN(BASE_IDX + 3, hal_i2c, HAL_I2C_Begin, void(HAL_I2C_Interface, I2C_Mode, uint8_t, void*))
DYNALIB_FN(BASE_IDX + 4, hal_i2c, HAL_I2C_End, void(HAL_I2C_Interface, void*))
DYNALIB_FN(BASE_IDX + 5, hal_i2c, HAL_I2C_Request_Data, uint32_t(HAL_I2C_Interface, uint8_t, uint8_t, uint8_t, void*))
DYNALIB_FN(BASE_IDX + 6, hal_i2c, HAL_I2C_Begin_Transmission, void(HAL_I2C_Interface, uint8_t, void*))
DYNALIB_FN(BASE_IDX + 7, hal_i2c, HAL_I2C_End_Transmission, uint8_t(HAL_I2C_Interface, uint8_t, void*))
DYNALIB_FN(BASE_IDX + 8, hal_i2c, HAL_I2C_Write_Data, uint32_t(HAL_I2C_Interface, uint8_t, void*))
 8080be0:	b508      	push	{r3, lr}
 8080be2:	4b02      	ldr	r3, [pc, #8]	; (8080bec <HAL_I2C_Write_Data+0xc>)
 8080be4:	681b      	ldr	r3, [r3, #0]
 8080be6:	6a1b      	ldr	r3, [r3, #32]
 8080be8:	9301      	str	r3, [sp, #4]
 8080bea:	bd08      	pop	{r3, pc}
 8080bec:	080401ac 	.word	0x080401ac

08080bf0 <HAL_I2C_Available_Data>:
DYNALIB_FN(BASE_IDX + 9, hal_i2c, HAL_I2C_Available_Data, int32_t(HAL_I2C_Interface, void*))
 8080bf0:	b508      	push	{r3, lr}
 8080bf2:	4b02      	ldr	r3, [pc, #8]	; (8080bfc <HAL_I2C_Available_Data+0xc>)
 8080bf4:	681b      	ldr	r3, [r3, #0]
 8080bf6:	6a5b      	ldr	r3, [r3, #36]	; 0x24
 8080bf8:	9301      	str	r3, [sp, #4]
 8080bfa:	bd08      	pop	{r3, pc}
 8080bfc:	080401ac 	.word	0x080401ac

08080c00 <HAL_I2C_Read_Data>:
DYNALIB_FN(BASE_IDX + 10, hal_i2c, HAL_I2C_Read_Data, int32_t(HAL_I2C_Interface, void*))
 8080c00:	b508      	push	{r3, lr}
 8080c02:	4b02      	ldr	r3, [pc, #8]	; (8080c0c <HAL_I2C_Read_Data+0xc>)
 8080c04:	681b      	ldr	r3, [r3, #0]
 8080c06:	6a9b      	ldr	r3, [r3, #40]	; 0x28
 8080c08:	9301      	str	r3, [sp, #4]
 8080c0a:	bd08      	pop	{r3, pc}
 8080c0c:	080401ac 	.word	0x080401ac

08080c10 <HAL_I2C_Peek_Data>:
DYNALIB_FN(BASE_IDX + 11, hal_i2c, HAL_I2C_Peek_Data, int32_t(HAL_I2C_Interface, void*))
 8080c10:	b508      	push	{r3, lr}
 8080c12:	4b02      	ldr	r3, [pc, #8]	; (8080c1c <HAL_I2C_Peek_Data+0xc>)
 8080c14:	681b      	ldr	r3, [r3, #0]
 8080c16:	6adb      	ldr	r3, [r3, #44]	; 0x2c
 8080c18:	9301      	str	r3, [sp, #4]
 8080c1a:	bd08      	pop	{r3, pc}
 8080c1c:	080401ac 	.word	0x080401ac

08080c20 <HAL_I2C_Flush_Data>:
DYNALIB_FN(BASE_IDX + 12, hal_i2c, HAL_I2C_Flush_Data, void(HAL_I2C_Interface, void*))
 8080c20:	b508      	push	{r3, lr}
 8080c22:	4b02      	ldr	r3, [pc, #8]	; (8080c2c <HAL_I2C_Flush_Data+0xc>)
 8080c24:	681b      	ldr	r3, [r3, #0]
 8080c26:	6b1b      	ldr	r3, [r3, #48]	; 0x30
 8080c28:	9301      	str	r3, [sp, #4]
 8080c2a:	bd08      	pop	{r3, pc}
 8080c2c:	080401ac 	.word	0x080401ac

08080c30 <HAL_I2C_Is_Enabled>:
DYNALIB_FN(BASE_IDX + 13, hal_i2c, HAL_I2C_Is_Enabled, bool(HAL_I2C_Interface, void*))
 8080c30:	b508      	push	{r3, lr}
 8080c32:	4b02      	ldr	r3, [pc, #8]	; (8080c3c <HAL_I2C_Is_Enabled+0xc>)
 8080c34:	681b      	ldr	r3, [r3, #0]
 8080c36:	6b5b      	ldr	r3, [r3, #52]	; 0x34
 8080c38:	9301      	str	r3, [sp, #4]
 8080c3a:	bd08      	pop	{r3, pc}
 8080c3c:	080401ac 	.word	0x080401ac

08080c40 <HAL_I2C_Init>:
DYNALIB_FN(BASE_IDX + 14, hal_i2c, HAL_I2C_Set_Callback_On_Receive, void(HAL_I2C_Interface, void(*)(int), void*))
DYNALIB_FN(BASE_IDX + 15, hal_i2c, HAL_I2C_Set_Callback_On_Request, void(HAL_I2C_Interface, void(*)(void), void*))
DYNALIB_FN(BASE_IDX + 16, hal_i2c, HAL_I2C_Init, void(HAL_I2C_Interface, void*))
 8080c40:	b508      	push	{r3, lr}
 8080c42:	4b02      	ldr	r3, [pc, #8]	; (8080c4c <HAL_I2C_Init+0xc>)
 8080c44:	681b      	ldr	r3, [r3, #0]
 8080c46:	6c1b      	ldr	r3, [r3, #64]	; 0x40
 8080c48:	9301      	str	r3, [sp, #4]
 8080c4a:	bd08      	pop	{r3, pc}
 8080c4c:	080401ac 	.word	0x080401ac

08080c50 <HAL_SPI_Init>:
DYNALIB_FN(2, hal_spi, HAL_SPI_Set_Bit_Order, void(HAL_SPI_Interface, uint8_t))
DYNALIB_FN(3, hal_spi, HAL_SPI_Set_Data_Mode, void(HAL_SPI_Interface, uint8_t))
DYNALIB_FN(4, hal_spi, HAL_SPI_Set_Clock_Divider, void(HAL_SPI_Interface, uint8_t))
DYNALIB_FN(5, hal_spi, HAL_SPI_Send_Receive_Data, uint16_t(HAL_SPI_Interface, uint16_t))
DYNALIB_FN(6, hal_spi, HAL_SPI_Is_Enabled_Old, bool(void))
DYNALIB_FN(7, hal_spi, HAL_SPI_Init, void(HAL_SPI_Interface))
 8080c50:	b508      	push	{r3, lr}
 8080c52:	4b02      	ldr	r3, [pc, #8]	; (8080c5c <HAL_SPI_Init+0xc>)
 8080c54:	681b      	ldr	r3, [r3, #0]
 8080c56:	69db      	ldr	r3, [r3, #28]
 8080c58:	9301      	str	r3, [sp, #4]
 8080c5a:	bd08      	pop	{r3, pc}
 8080c5c:	080401b4 	.word	0x080401b4

08080c60 <HAL_SPI_Is_Enabled>:
DYNALIB_FN(8, hal_spi, HAL_SPI_Is_Enabled, bool(HAL_SPI_Interface))
 8080c60:	b508      	push	{r3, lr}
 8080c62:	4b02      	ldr	r3, [pc, #8]	; (8080c6c <HAL_SPI_Is_Enabled+0xc>)
 8080c64:	681b      	ldr	r3, [r3, #0]
 8080c66:	6a1b      	ldr	r3, [r3, #32]
 8080c68:	9301      	str	r3, [sp, #4]
 8080c6a:	bd08      	pop	{r3, pc}
 8080c6c:	080401b4 	.word	0x080401b4

08080c70 <HAL_USART_Init>:
#define BASE_IDX 6 // Base index for all subsequent functions
#else
#define BASE_IDX 0
#endif

DYNALIB_FN(BASE_IDX + 0, hal_usart, HAL_USART_Init, void(HAL_USART_Serial, Ring_Buffer*, Ring_Buffer*))
 8080c70:	b508      	push	{r3, lr}
 8080c72:	4b02      	ldr	r3, [pc, #8]	; (8080c7c <HAL_USART_Init+0xc>)
 8080c74:	681b      	ldr	r3, [r3, #0]
 8080c76:	699b      	ldr	r3, [r3, #24]
 8080c78:	9301      	str	r3, [sp, #4]
 8080c7a:	bd08      	pop	{r3, pc}
 8080c7c:	080401c4 	.word	0x080401c4

08080c80 <HAL_USART_Write_Data>:
DYNALIB_FN(BASE_IDX + 1, hal_usart, HAL_USART_Begin, void(HAL_USART_Serial, uint32_t))
DYNALIB_FN(BASE_IDX + 2, hal_usart, HAL_USART_End, void(HAL_USART_Serial))
DYNALIB_FN(BASE_IDX + 3, hal_usart, HAL_USART_Write_Data, uint32_t(HAL_USART_Serial, uint8_t))
 8080c80:	b508      	push	{r3, lr}
 8080c82:	4b02      	ldr	r3, [pc, #8]	; (8080c8c <HAL_USART_Write_Data+0xc>)
 8080c84:	681b      	ldr	r3, [r3, #0]
 8080c86:	6a5b      	ldr	r3, [r3, #36]	; 0x24
 8080c88:	9301      	str	r3, [sp, #4]
 8080c8a:	bd08      	pop	{r3, pc}
 8080c8c:	080401c4 	.word	0x080401c4

08080c90 <HAL_USART_Available_Data>:
DYNALIB_FN(BASE_IDX + 4, hal_usart, HAL_USART_Available_Data, int32_t(HAL_USART_Serial))
 8080c90:	b508      	push	{r3, lr}
 8080c92:	4b02      	ldr	r3, [pc, #8]	; (8080c9c <HAL_USART_Available_Data+0xc>)
 8080c94:	681b      	ldr	r3, [r3, #0]
 8080c96:	6a9b      	ldr	r3, [r3, #40]	; 0x28
 8080c98:	9301      	str	r3, [sp, #4]
 8080c9a:	bd08      	pop	{r3, pc}
 8080c9c:	080401c4 	.word	0x080401c4

08080ca0 <HAL_USART_Read_Data>:
DYNALIB_FN(BASE_IDX + 5, hal_usart, HAL_USART_Read_Data, int32_t(HAL_USART_Serial))
 8080ca0:	b508      	push	{r3, lr}
 8080ca2:	4b02      	ldr	r3, [pc, #8]	; (8080cac <HAL_USART_Read_Data+0xc>)
 8080ca4:	681b      	ldr	r3, [r3, #0]
 8080ca6:	6adb      	ldr	r3, [r3, #44]	; 0x2c
 8080ca8:	9301      	str	r3, [sp, #4]
 8080caa:	bd08      	pop	{r3, pc}
 8080cac:	080401c4 	.word	0x080401c4

08080cb0 <HAL_USART_Peek_Data>:
DYNALIB_FN(BASE_IDX + 6, hal_usart, HAL_USART_Peek_Data, int32_t(HAL_USART_Serial))
 8080cb0:	b508      	push	{r3, lr}
 8080cb2:	4b02      	ldr	r3, [pc, #8]	; (8080cbc <HAL_USART_Peek_Data+0xc>)
 8080cb4:	681b      	ldr	r3, [r3, #0]
 8080cb6:	6b1b      	ldr	r3, [r3, #48]	; 0x30
 8080cb8:	9301      	str	r3, [sp, #4]
 8080cba:	bd08      	pop	{r3, pc}
 8080cbc:	080401c4 	.word	0x080401c4

08080cc0 <HAL_USART_Flush_Data>:
DYNALIB_FN(BASE_IDX + 7, hal_usart, HAL_USART_Flush_Data, void(HAL_USART_Serial))
 8080cc0:	b508      	push	{r3, lr}
 8080cc2:	4b02      	ldr	r3, [pc, #8]	; (8080ccc <HAL_USART_Flush_Data+0xc>)
 8080cc4:	681b      	ldr	r3, [r3, #0]
 8080cc6:	6b5b      	ldr	r3, [r3, #52]	; 0x34
 8080cc8:	9301      	str	r3, [sp, #4]
 8080cca:	bd08      	pop	{r3, pc}
 8080ccc:	080401c4 	.word	0x080401c4

08080cd0 <HAL_USART_Is_Enabled>:
DYNALIB_FN(BASE_IDX + 8, hal_usart, HAL_USART_Is_Enabled, bool(HAL_USART_Serial))
 8080cd0:	b508      	push	{r3, lr}
 8080cd2:	4b02      	ldr	r3, [pc, #8]	; (8080cdc <HAL_USART_Is_Enabled+0xc>)
 8080cd4:	681b      	ldr	r3, [r3, #0]
 8080cd6:	6b9b      	ldr	r3, [r3, #56]	; 0x38
 8080cd8:	9301      	str	r3, [sp, #4]
 8080cda:	bd08      	pop	{r3, pc}
 8080cdc:	080401c4 	.word	0x080401c4

08080ce0 <HAL_USART_Available_Data_For_Write>:
DYNALIB_FN(BASE_IDX + 9, hal_usart, HAL_USART_Half_Duplex, void(HAL_USART_Serial, bool))
DYNALIB_FN(BASE_IDX + 10, hal_usart, HAL_USART_Available_Data_For_Write, int32_t(HAL_USART_Serial))
 8080ce0:	b508      	push	{r3, lr}
 8080ce2:	4b02      	ldr	r3, [pc, #8]	; (8080cec <HAL_USART_Available_Data_For_Write+0xc>)
 8080ce4:	681b      	ldr	r3, [r3, #0]
 8080ce6:	6c1b      	ldr	r3, [r3, #64]	; 0x40
 8080ce8:	9301      	str	r3, [sp, #4]
 8080cea:	bd08      	pop	{r3, pc}
 8080cec:	080401c4 	.word	0x080401c4

08080cf0 <HAL_USART_BeginConfig>:
#define BASE_IDX2 (BASE_IDX+13)
#else
#define BASE_IDX2 (BASE_IDX+11)
#endif

DYNALIB_FN(BASE_IDX2 + 0, hal_usart, HAL_USART_BeginConfig, void(HAL_USART_Serial serial, uint32_t baud, uint32_t config, void *ptr))
 8080cf0:	b508      	push	{r3, lr}
 8080cf2:	4b02      	ldr	r3, [pc, #8]	; (8080cfc <HAL_USART_BeginConfig+0xc>)
 8080cf4:	681b      	ldr	r3, [r3, #0]
 8080cf6:	6cdb      	ldr	r3, [r3, #76]	; 0x4c
 8080cf8:	9301      	str	r3, [sp, #4]
 8080cfa:	bd08      	pop	{r3, pc}
 8080cfc:	080401c4 	.word	0x080401c4

08080d00 <HAL_USART_Write_NineBitData>:
DYNALIB_FN(BASE_IDX2 + 1, hal_usart, HAL_USART_Write_NineBitData, uint32_t(HAL_USART_Serial serial, uint16_t data))
 8080d00:	b508      	push	{r3, lr}
 8080d02:	4b02      	ldr	r3, [pc, #8]	; (8080d0c <HAL_USART_Write_NineBitData+0xc>)
 8080d04:	681b      	ldr	r3, [r3, #0]
 8080d06:	6d1b      	ldr	r3, [r3, #80]	; 0x50
 8080d08:	9301      	str	r3, [sp, #4]
 8080d0a:	bd08      	pop	{r3, pc}
 8080d0c:	080401c4 	.word	0x080401c4

08080d10 <HAL_USB_USART_Init>:
#endif

DYNALIB_BEGIN(hal_usb)

#ifdef USB_CDC_ENABLE
DYNALIB_FN(0, hal_usb, HAL_USB_USART_Init, void(HAL_USB_USART_Serial, const HAL_USB_USART_Config*))
 8080d10:	b508      	push	{r3, lr}
 8080d12:	4b02      	ldr	r3, [pc, #8]	; (8080d1c <HAL_USB_USART_Init+0xc>)
 8080d14:	681b      	ldr	r3, [r3, #0]
 8080d16:	681b      	ldr	r3, [r3, #0]
 8080d18:	9301      	str	r3, [sp, #4]
 8080d1a:	bd08      	pop	{r3, pc}
 8080d1c:	0806001c 	.word	0x0806001c

08080d20 <HAL_USB_USART_Begin>:
DYNALIB_FN(1, hal_usb, HAL_USB_USART_Begin, void(HAL_USB_USART_Serial, uint32_t, void *))
 8080d20:	b508      	push	{r3, lr}
 8080d22:	4b02      	ldr	r3, [pc, #8]	; (8080d2c <HAL_USB_USART_Begin+0xc>)
 8080d24:	681b      	ldr	r3, [r3, #0]
 8080d26:	685b      	ldr	r3, [r3, #4]
 8080d28:	9301      	str	r3, [sp, #4]
 8080d2a:	bd08      	pop	{r3, pc}
 8080d2c:	0806001c 	.word	0x0806001c

08080d30 <HAL_USB_USART_Available_Data>:
DYNALIB_FN(2, hal_usb, HAL_USB_USART_End, void(HAL_USB_USART_Serial))
DYNALIB_FN(3, hal_usb, HAL_USB_USART_Baud_Rate, unsigned int(HAL_USB_USART_Serial))
DYNALIB_FN(4, hal_usb, HAL_USB_USART_Available_Data, int32_t(HAL_USB_USART_Serial))
 8080d30:	b508      	push	{r3, lr}
 8080d32:	4b02      	ldr	r3, [pc, #8]	; (8080d3c <HAL_USB_USART_Available_Data+0xc>)
 8080d34:	681b      	ldr	r3, [r3, #0]
 8080d36:	691b      	ldr	r3, [r3, #16]
 8080d38:	9301      	str	r3, [sp, #4]
 8080d3a:	bd08      	pop	{r3, pc}
 8080d3c:	0806001c 	.word	0x0806001c

08080d40 <HAL_USB_USART_Available_Data_For_Write>:
DYNALIB_FN(5, hal_usb, HAL_USB_USART_Available_Data_For_Write, int32_t(HAL_USB_USART_Serial))
 8080d40:	b508      	push	{r3, lr}
 8080d42:	4b02      	ldr	r3, [pc, #8]	; (8080d4c <HAL_USB_USART_Available_Data_For_Write+0xc>)
 8080d44:	681b      	ldr	r3, [r3, #0]
 8080d46:	695b      	ldr	r3, [r3, #20]
 8080d48:	9301      	str	r3, [sp, #4]
 8080d4a:	bd08      	pop	{r3, pc}
 8080d4c:	0806001c 	.word	0x0806001c

08080d50 <HAL_USB_USART_Receive_Data>:
DYNALIB_FN(6, hal_usb, HAL_USB_USART_Receive_Data, int32_t(HAL_USB_USART_Serial, uint8_t))
 8080d50:	b508      	push	{r3, lr}
 8080d52:	4b02      	ldr	r3, [pc, #8]	; (8080d5c <HAL_USB_USART_Receive_Data+0xc>)
 8080d54:	681b      	ldr	r3, [r3, #0]
 8080d56:	699b      	ldr	r3, [r3, #24]
 8080d58:	9301      	str	r3, [sp, #4]
 8080d5a:	bd08      	pop	{r3, pc}
 8080d5c:	0806001c 	.word	0x0806001c

08080d60 <HAL_USB_USART_Send_Data>:
DYNALIB_FN(7, hal_usb, HAL_USB_USART_Send_Data, int32_t(HAL_USB_USART_Serial, uint8_t))
 8080d60:	b508      	push	{r3, lr}
 8080d62:	4b02      	ldr	r3, [pc, #8]	; (8080d6c <HAL_USB_USART_Send_Data+0xc>)
 8080d64:	681b      	ldr	r3, [r3, #0]
 8080d66:	69db      	ldr	r3, [r3, #28]
 8080d68:	9301      	str	r3, [sp, #4]
 8080d6a:	bd08      	pop	{r3, pc}
 8080d6c:	0806001c 	.word	0x0806001c

08080d70 <HAL_USB_USART_Flush_Data>:
DYNALIB_FN(8, hal_usb, HAL_USB_USART_Flush_Data, void(HAL_USB_USART_Serial))
 8080d70:	b508      	push	{r3, lr}
 8080d72:	4b02      	ldr	r3, [pc, #8]	; (8080d7c <HAL_USB_USART_Flush_Data+0xc>)
 8080d74:	681b      	ldr	r3, [r3, #0]
 8080d76:	6a1b      	ldr	r3, [r3, #32]
 8080d78:	9301      	str	r3, [sp, #4]
 8080d7a:	bd08      	pop	{r3, pc}
 8080d7c:	0806001c 	.word	0x0806001c

08080d80 <set_system_mode>:
#endif

DYNALIB_BEGIN(system)

DYNALIB_FN(0, system, system_mode, System_Mode_TypeDef(void))
DYNALIB_FN(1, system, set_system_mode, void(System_Mode_TypeDef))
 8080d80:	b508      	push	{r3, lr}
 8080d82:	4b02      	ldr	r3, [pc, #8]	; (8080d8c <set_system_mode+0xc>)
 8080d84:	681b      	ldr	r3, [r3, #0]
 8080d86:	685b      	ldr	r3, [r3, #4]
 8080d88:	9301      	str	r3, [sp, #4]
 8080d8a:	bd08      	pop	{r3, pc}
 8080d8c:	080401a4 	.word	0x080401a4

08080d90 <system_delay_ms>:

DYNALIB_FN(2, system, set_ymodem_serial_flash_update_handler, void(ymodem_serial_flash_update_handler))
DYNALIB_FN(3, system, system_firmwareUpdate, bool(Stream*, void*))
DYNALIB_FN(4, system, system_fileTransfer, bool(system_file_transfer_t*, void*))

DYNALIB_FN(5, system, system_delay_ms, void(unsigned long, bool))
 8080d90:	b508      	push	{r3, lr}
 8080d92:	4b02      	ldr	r3, [pc, #8]	; (8080d9c <system_delay_ms+0xc>)
 8080d94:	681b      	ldr	r3, [r3, #0]
 8080d96:	695b      	ldr	r3, [r3, #20]
 8080d98:	9301      	str	r3, [sp, #4]
 8080d9a:	bd08      	pop	{r3, pc}
 8080d9c:	080401a4 	.word	0x080401a4

08080da0 <system_thread_set_state>:
DYNALIB_FN(6, system, system_sleep, void(Spark_Sleep_TypeDef, long, uint32_t, void*))
DYNALIB_FN(7, system, system_sleep_pin, void(uint16_t, uint16_t, long, uint32_t, void*))
DYNALIB_FN(8, system, system_subscribe_event, int(system_event_t, system_event_handler_t*, void*))
DYNALIB_FN(9, system, system_unsubscribe_event, void(system_event_t, system_event_handler_t*, void*))
DYNALIB_FN(10, system, system_button_pushed_duration, uint16_t(uint8_t, void*))
DYNALIB_FN(11, system, system_thread_set_state, void(spark::feature::State, void*))
 8080da0:	b508      	push	{r3, lr}
 8080da2:	4b02      	ldr	r3, [pc, #8]	; (8080dac <system_thread_set_state+0xc>)
 8080da4:	681b      	ldr	r3, [r3, #0]
 8080da6:	6adb      	ldr	r3, [r3, #44]	; 0x2c
 8080da8:	9301      	str	r3, [sp, #4]
 8080daa:	bd08      	pop	{r3, pc}
 8080dac:	080401a4 	.word	0x080401a4

08080db0 <system_ctrl_set_app_request_handler>:
DYNALIB_FN(BASE_IDX + 6, system, led_pattern_period, uint16_t(int, int, void*))
DYNALIB_FN(BASE_IDX + 7, system, system_set_tester_handlers, int(system_tester_handlers_t*, void*))
DYNALIB_FN(BASE_IDX + 8, system, system_format_diag_data, int(const uint16_t*, size_t, unsigned, appender_fn, void*, void*))

// Control requests
DYNALIB_FN(BASE_IDX + 9, system, system_ctrl_set_app_request_handler, int(ctrl_request_handler_fn, void*))
 8080db0:	b508      	push	{r3, lr}
 8080db2:	4b03      	ldr	r3, [pc, #12]	; (8080dc0 <system_ctrl_set_app_request_handler+0x10>)
 8080db4:	681b      	ldr	r3, [r3, #0]
 8080db6:	f8d3 3090 	ldr.w	r3, [r3, #144]	; 0x90
 8080dba:	9301      	str	r3, [sp, #4]
 8080dbc:	bd08      	pop	{r3, pc}
 8080dbe:	0000      	.short	0x0000
 8080dc0:	080401a4 	.word	0x080401a4

08080dc4 <system_ctrl_set_result>:
DYNALIB_FN(BASE_IDX + 10, system, system_ctrl_alloc_reply_data, int(ctrl_request*, size_t, void*))
DYNALIB_FN(BASE_IDX + 11, system, system_ctrl_free_request_data, void(ctrl_request*, void*))
DYNALIB_FN(BASE_IDX + 12, system, system_ctrl_set_result, void(ctrl_request*, int, ctrl_completion_handler_fn, void*, void*))
 8080dc4:	b508      	push	{r3, lr}
 8080dc6:	4b03      	ldr	r3, [pc, #12]	; (8080dd4 <system_ctrl_set_result+0x10>)
 8080dc8:	681b      	ldr	r3, [r3, #0]
 8080dca:	f8d3 309c 	ldr.w	r3, [r3, #156]	; 0x9c
 8080dce:	9301      	str	r3, [sp, #4]
 8080dd0:	bd08      	pop	{r3, pc}
 8080dd2:	0000      	.short	0x0000
 8080dd4:	080401a4 	.word	0x080401a4

08080dd8 <spark_set_random_seed_from_cloud_handler>:
DYNALIB_FN(10, system_cloud, spark_unsubscribe, void(void*))
DYNALIB_FN(11, system_cloud, spark_sync_time, bool(void*))
DYNALIB_FN(12, system_cloud, spark_sync_time_pending, bool(void*))
DYNALIB_FN(13, system_cloud, spark_sync_time_last, system_tick_t(time_t*, void*))
DYNALIB_FN(14, system_cloud, spark_set_connection_property, int(unsigned, unsigned, particle::protocol::connection_properties_t*, void*))
DYNALIB_FN(15, system_cloud, spark_set_random_seed_from_cloud_handler, int(void (*handler)(unsigned int), void*))
 8080dd8:	b508      	push	{r3, lr}
 8080dda:	4b02      	ldr	r3, [pc, #8]	; (8080de4 <spark_set_random_seed_from_cloud_handler+0xc>)
 8080ddc:	681b      	ldr	r3, [r3, #0]
 8080dde:	6bdb      	ldr	r3, [r3, #60]	; 0x3c
 8080de0:	9301      	str	r3, [sp, #4]
 8080de2:	bd08      	pop	{r3, pc}
 8080de4:	080401cc 	.word	0x080401cc

08080de8 <network_ready>:

DYNALIB_FN(0, system_net, network_config, const void*(network_handle_t, uint32_t, void*))
DYNALIB_FN(1, system_net, network_connect, void(network_handle_t, uint32_t, uint32_t, void*))
DYNALIB_FN(2, system_net, network_connecting, bool(network_handle_t, uint32_t, void*))
DYNALIB_FN(3, system_net, network_disconnect, void(network_handle_t, uint32_t, void*))
DYNALIB_FN(4, system_net, network_ready, bool(network_handle_t, uint32_t, void*))
 8080de8:	b508      	push	{r3, lr}
 8080dea:	4b02      	ldr	r3, [pc, #8]	; (8080df4 <network_ready+0xc>)
 8080dec:	681b      	ldr	r3, [r3, #0]
 8080dee:	691b      	ldr	r3, [r3, #16]
 8080df0:	9301      	str	r3, [sp, #4]
 8080df2:	bd08      	pop	{r3, pc}
 8080df4:	080401c8 	.word	0x080401c8

08080df8 <malloc>:

#include "dynalib.h"

DYNALIB_BEGIN(rt)

DYNALIB_FN(0, rt, malloc, void*(size_t))
 8080df8:	b508      	push	{r3, lr}
 8080dfa:	4b02      	ldr	r3, [pc, #8]	; (8080e04 <malloc+0xc>)
 8080dfc:	681b      	ldr	r3, [r3, #0]
 8080dfe:	681b      	ldr	r3, [r3, #0]
 8080e00:	9301      	str	r3, [sp, #4]
 8080e02:	bd08      	pop	{r3, pc}
 8080e04:	080401a0 	.word	0x080401a0

08080e08 <free>:
DYNALIB_FN(1, rt, free, void(void*))
 8080e08:	b508      	push	{r3, lr}
 8080e0a:	4b02      	ldr	r3, [pc, #8]	; (8080e14 <free+0xc>)
 8080e0c:	681b      	ldr	r3, [r3, #0]
 8080e0e:	685b      	ldr	r3, [r3, #4]
 8080e10:	9301      	str	r3, [sp, #4]
 8080e12:	bd08      	pop	{r3, pc}
 8080e14:	080401a0 	.word	0x080401a0

08080e18 <vsnprintf>:
DYNALIB_FN(4, rt, siprintf, int(char*, const char*, ...))
DYNALIB_FN(5, rt, sscanf, int(const char*, const char*, ...))
DYNALIB_FN(6, rt, siscanf, int(const char*, const char*, ...))
DYNALIB_FN(7, rt, snprintf, int(char*, size_t, const char*, ...))
DYNALIB_FN(8, rt, sniprintf, int(char*, size_t, const char*, ...))
DYNALIB_FN(9, rt, vsnprintf, int(char*, size_t, const char*, va_list))
 8080e18:	b508      	push	{r3, lr}
 8080e1a:	4b02      	ldr	r3, [pc, #8]	; (8080e24 <vsnprintf+0xc>)
 8080e1c:	681b      	ldr	r3, [r3, #0]
 8080e1e:	6a5b      	ldr	r3, [r3, #36]	; 0x24
 8080e20:	9301      	str	r3, [sp, #4]
 8080e22:	bd08      	pop	{r3, pc}
 8080e24:	080401a0 	.word	0x080401a0

08080e28 <delay>:
    return (value - fromStart) * (toEnd - toStart) / (fromEnd - fromStart) + toStart;
}

void delay(unsigned long ms)
{
    system_delay_ms(ms, false);
 8080e28:	2100      	movs	r1, #0
 8080e2a:	f7ff bfb1 	b.w	8080d90 <system_delay_ms>

08080e2e <_ZN5spark13CellularClass5readyEv>:
        return network_listening(*this, 0, NULL);
    }

    bool ready()
    {
        return network_ready(*this, 0,  NULL);
 8080e2e:	2200      	movs	r2, #0
 8080e30:	4611      	mov	r1, r2
 8080e32:	4610      	mov	r0, r2
 8080e34:	f7ff bfd8 	b.w	8080de8 <network_ready>

08080e38 <_GLOBAL__sub_I__ZN5spark13CellularClass4RSSIEv>:
        return (band_get.ok = true);
    }

    CellularClass Cellular;
    NetworkClass& Network = Cellular;
}
 8080e38:	b538      	push	{r3, r4, r5, lr}
    int tx_total;
    int rx_total;

    CellularDataHal()
    {
        memset(this, 0, sizeof(*this));
 8080e3a:	4c0b      	ldr	r4, [pc, #44]	; (8080e68 <_GLOBAL__sub_I__ZN5spark13CellularClass4RSSIEv+0x30>)
 8080e3c:	2528      	movs	r5, #40	; 0x28
 8080e3e:	462a      	mov	r2, r5
 8080e40:	2100      	movs	r1, #0
 8080e42:	4620      	mov	r0, r4
 8080e44:	f001 fb15 	bl	8082472 <memset>
        cid = -1;
 8080e48:	f04f 33ff 	mov.w	r3, #4294967295	; 0xffffffff
 8080e4c:	6063      	str	r3, [r4, #4]
        size = sizeof(*this);
 8080e4e:	8025      	strh	r5, [r4, #0]
#include "inet_hal.h"
#include "spark_wiring_cellular_printable.h"

namespace spark {

class CellularClass : public NetworkClass
 8080e50:	4c06      	ldr	r4, [pc, #24]	; (8080e6c <_GLOBAL__sub_I__ZN5spark13CellularClass4RSSIEv+0x34>)
 8080e52:	4b07      	ldr	r3, [pc, #28]	; (8080e70 <_GLOBAL__sub_I__ZN5spark13CellularClass4RSSIEv+0x38>)
 8080e54:	4620      	mov	r0, r4
    char imei[16];
    int dev;

    CellularDevice()
    {
        memset(this, 0, sizeof(*this));
 8080e56:	252c      	movs	r5, #44	; 0x2c
 8080e58:	f840 3b04 	str.w	r3, [r0], #4
 8080e5c:	462a      	mov	r2, r5
 8080e5e:	2100      	movs	r1, #0
 8080e60:	f001 fb07 	bl	8082472 <memset>
        size = sizeof(*this);
 8080e64:	80a5      	strh	r5, [r4, #4]
 8080e66:	bd38      	pop	{r3, r4, r5, pc}
 8080e68:	200007c8 	.word	0x200007c8
 8080e6c:	20000798 	.word	0x20000798
 8080e70:	080826dc 	.word	0x080826dc

08080e74 <_ZNSt14_Function_baseD1Ev>:
	}
      };

    _Function_base() : _M_manager(nullptr) { }

    ~_Function_base()
 8080e74:	b510      	push	{r4, lr}
    {
      if (_M_manager)
 8080e76:	6883      	ldr	r3, [r0, #8]
	}
      };

    _Function_base() : _M_manager(nullptr) { }

    ~_Function_base()
 8080e78:	4604      	mov	r4, r0
    {
      if (_M_manager)
 8080e7a:	b113      	cbz	r3, 8080e82 <_ZNSt14_Function_baseD1Ev+0xe>
	_M_manager(_M_functor, _M_functor, __destroy_functor);
 8080e7c:	2203      	movs	r2, #3
 8080e7e:	4601      	mov	r1, r0
 8080e80:	4798      	blx	r3
    }
 8080e82:	4620      	mov	r0, r4
 8080e84:	bd10      	pop	{r4, pc}

08080e86 <_ZN7TwoWireD1Ev>:
private:
  HAL_I2C_Interface _i2c;

public:
  TwoWire(HAL_I2C_Interface i2c);
  virtual ~TwoWire() {};
 8080e86:	4770      	bx	lr

08080e88 <_ZN7TwoWire5writeEPKhj>:

// must be called in:
// slave tx event callback
// or after beginTransmission(address)
size_t TwoWire::write(const uint8_t *data, size_t quantity)
{
 8080e88:	b5f8      	push	{r3, r4, r5, r6, r7, lr}
 8080e8a:	4606      	mov	r6, r0
 8080e8c:	4615      	mov	r5, r2
 8080e8e:	460c      	mov	r4, r1
 8080e90:	188f      	adds	r7, r1, r2
  // in master/slave transmitter mode
  for(size_t i = 0; i < quantity; ++i)
 8080e92:	42bc      	cmp	r4, r7
 8080e94:	d006      	beq.n	8080ea4 <_ZN7TwoWire5writeEPKhj+0x1c>
  {
    write(data[i]);
 8080e96:	6833      	ldr	r3, [r6, #0]
 8080e98:	f814 1b01 	ldrb.w	r1, [r4], #1
 8080e9c:	689b      	ldr	r3, [r3, #8]
 8080e9e:	4630      	mov	r0, r6
 8080ea0:	4798      	blx	r3
// slave tx event callback
// or after beginTransmission(address)
size_t TwoWire::write(const uint8_t *data, size_t quantity)
{
  // in master/slave transmitter mode
  for(size_t i = 0; i < quantity; ++i)
 8080ea2:	e7f6      	b.n	8080e92 <_ZN7TwoWire5writeEPKhj+0xa>
  {
    write(data[i]);
  }

  return quantity;
}
 8080ea4:	4628      	mov	r0, r5
 8080ea6:	bdf8      	pop	{r3, r4, r5, r6, r7, pc}

08080ea8 <_ZN7TwoWire5writeEh>:
// must be called in:
// slave tx event callback
// or after beginTransmission(address)
size_t TwoWire::write(uint8_t data)
{
  return HAL_I2C_Write_Data(_i2c, data, NULL);
 8080ea8:	2200      	movs	r2, #0
 8080eaa:	7c00      	ldrb	r0, [r0, #16]
 8080eac:	f7ff be98 	b.w	8080be0 <HAL_I2C_Write_Data>

08080eb0 <_ZN7TwoWire9availableEv>:
// must be called in:
// slave rx event callback
// or after requestFrom(address, numBytes)
int TwoWire::available(void)
{
  return HAL_I2C_Available_Data(_i2c, NULL);
 8080eb0:	2100      	movs	r1, #0
 8080eb2:	7c00      	ldrb	r0, [r0, #16]
 8080eb4:	f7ff be9c 	b.w	8080bf0 <HAL_I2C_Available_Data>

08080eb8 <_ZN7TwoWire4readEv>:
// must be called in:
// slave rx event callback
// or after requestFrom(address, numBytes)
int TwoWire::read(void)
{
  return HAL_I2C_Read_Data(_i2c, NULL);
 8080eb8:	2100      	movs	r1, #0
 8080eba:	7c00      	ldrb	r0, [r0, #16]
 8080ebc:	f7ff bea0 	b.w	8080c00 <HAL_I2C_Read_Data>

08080ec0 <_ZN7TwoWire4peekEv>:
// must be called in:
// slave rx event callback
// or after requestFrom(address, numBytes)
int TwoWire::peek(void)
{
  return HAL_I2C_Peek_Data(_i2c, NULL);
 8080ec0:	2100      	movs	r1, #0
 8080ec2:	7c00      	ldrb	r0, [r0, #16]
 8080ec4:	f7ff bea4 	b.w	8080c10 <HAL_I2C_Peek_Data>

08080ec8 <_ZN7TwoWire5flushEv>:
}

void TwoWire::flush(void)
{
  HAL_I2C_Flush_Data(_i2c, NULL);
 8080ec8:	2100      	movs	r1, #0
 8080eca:	7c00      	ldrb	r0, [r0, #16]
 8080ecc:	f7ff bea8 	b.w	8080c20 <HAL_I2C_Flush_Data>

08080ed0 <_ZN7TwoWireD0Ev>:
 8080ed0:	b510      	push	{r4, lr}
 8080ed2:	4604      	mov	r4, r0
 8080ed4:	f7ff f8e1 	bl	808009a <_ZdlPv>
 8080ed8:	4620      	mov	r0, r4
 8080eda:	bd10      	pop	{r4, pc}

08080edc <_ZN7TwoWireC1E17HAL_I2C_Interface>:
#include "i2c_hal.h"
#include "spark_wiring_thread.h"

// Constructors ////////////////////////////////////////////////////////////////

TwoWire::TwoWire(HAL_I2C_Interface i2c)
 8080edc:	b510      	push	{r4, lr}
 8080ede:	4604      	mov	r4, r0
 8080ee0:	4608      	mov	r0, r1
    virtual int available() = 0;
    virtual int read() = 0;
    virtual int peek() = 0;
    virtual void flush() = 0;

    Stream() {_timeout=1000;}
 8080ee2:	f44f 737a 	mov.w	r3, #1000	; 0x3e8
 8080ee6:	60a3      	str	r3, [r4, #8]
 8080ee8:	4b04      	ldr	r3, [pc, #16]	; (8080efc <_ZN7TwoWireC1E17HAL_I2C_Interface+0x20>)
  protected:
    void setWriteError(int err = 1) { write_error = err; }
    size_t printf_impl(bool newline, const char* format, ...);

  public:
    Print() : write_error(0) {}
 8080eea:	2100      	movs	r1, #0
{
  _i2c = i2c;
 8080eec:	7420      	strb	r0, [r4, #16]
 8080eee:	6061      	str	r1, [r4, #4]
#include "i2c_hal.h"
#include "spark_wiring_thread.h"

// Constructors ////////////////////////////////////////////////////////////////

TwoWire::TwoWire(HAL_I2C_Interface i2c)
 8080ef0:	6023      	str	r3, [r4, #0]
{
  _i2c = i2c;
  HAL_I2C_Init(_i2c, NULL);
 8080ef2:	f7ff fea5 	bl	8080c40 <HAL_I2C_Init>

}
 8080ef6:	4620      	mov	r0, r4
 8080ef8:	bd10      	pop	{r4, pc}
 8080efa:	bf00      	nop
 8080efc:	080826e8 	.word	0x080826e8

08080f00 <_ZN7TwoWire9isEnabledEv>:
  HAL_I2C_Set_Callback_On_Request(_i2c, function, NULL);
}

bool TwoWire::isEnabled()
{
  return HAL_I2C_Is_Enabled(_i2c, NULL);
 8080f00:	2100      	movs	r1, #0
 8080f02:	7c00      	ldrb	r0, [r0, #16]
 8080f04:	f7ff be94 	b.w	8080c30 <HAL_I2C_Is_Enabled>

08080f08 <_ZN9IPAddressD1Ev>:
    IPAddress(uint8_t first_octet, uint8_t second_octet, uint8_t third_octet, uint8_t fourth_octet);
    IPAddress(uint32_t address);
    IPAddress(const uint8_t* address);
    IPAddress(const HAL_IPAddress& address);

    virtual ~IPAddress() {}
 8080f08:	4770      	bx	lr

08080f0a <_ZN9IPAddressD0Ev>:
 8080f0a:	b510      	push	{r4, lr}
 8080f0c:	4604      	mov	r4, r0
 8080f0e:	f7ff f8c4 	bl	808009a <_ZdlPv>
 8080f12:	4620      	mov	r0, r4
 8080f14:	bd10      	pop	{r4, pc}

08080f16 <_ZNK9IPAddress7printToER5Print>:
#endif
	return address.ipv4==that.address.ipv4;
}

size_t IPAddress::printTo(Print& p) const
{
 8080f16:	b5f8      	push	{r3, r4, r5, r6, r7, lr}
 8080f18:	460f      	mov	r7, r1
 8080f1a:	f100 0608 	add.w	r6, r0, #8
 8080f1e:	1d05      	adds	r5, r0, #4
 8080f20:	2400      	movs	r4, #0
    size_t n = 0;
    for (int i = 0; i < 4; i++)
    {
        if (n)
            n += p.print('.');
        n += p.print((*this)[i], DEC);
 8080f22:	f816 1d01 	ldrb.w	r1, [r6, #-1]!
 8080f26:	220a      	movs	r2, #10
 8080f28:	4638      	mov	r0, r7
 8080f2a:	f000 f890 	bl	808104e <_ZN5Print5printEhi>
}

size_t IPAddress::printTo(Print& p) const
{
    size_t n = 0;
    for (int i = 0; i < 4; i++)
 8080f2e:	42ae      	cmp	r6, r5
    {
        if (n)
            n += p.print('.');
        n += p.print((*this)[i], DEC);
 8080f30:	4404      	add	r4, r0
}

size_t IPAddress::printTo(Print& p) const
{
    size_t n = 0;
    for (int i = 0; i < 4; i++)
 8080f32:	d007      	beq.n	8080f44 <_ZNK9IPAddress7printToER5Print+0x2e>
    {
        if (n)
 8080f34:	2c00      	cmp	r4, #0
 8080f36:	d0f4      	beq.n	8080f22 <_ZNK9IPAddress7printToER5Print+0xc>
            n += p.print('.');
 8080f38:	212e      	movs	r1, #46	; 0x2e
 8080f3a:	4638      	mov	r0, r7
 8080f3c:	f000 f84e 	bl	8080fdc <_ZN5Print5printEc>
 8080f40:	4404      	add	r4, r0
 8080f42:	e7ee      	b.n	8080f22 <_ZNK9IPAddress7printToER5Print+0xc>
        n += p.print((*this)[i], DEC);
    }
    return n;
}
 8080f44:	4620      	mov	r0, r4
 8080f46:	bdf8      	pop	{r3, r4, r5, r6, r7, pc}

08080f48 <_ZN9IPAddress8set_ipv4Ehhhh>:
    return address.ipv4!=0;
#endif
}

void IPAddress::set_ipv4(uint8_t b0, uint8_t b1, uint8_t b2, uint8_t b3)
{
 8080f48:	b510      	push	{r4, lr}
    address.ipv4 = b0<<24 | b1 << 16 | b2 << 8 | b3;
 8080f4a:	f89d 4008 	ldrb.w	r4, [sp, #8]
 8080f4e:	ea44 2303 	orr.w	r3, r4, r3, lsl #8
 8080f52:	ea43 4202 	orr.w	r2, r3, r2, lsl #16
 8080f56:	ea42 6101 	orr.w	r1, r2, r1, lsl #24
 8080f5a:	6041      	str	r1, [r0, #4]
 8080f5c:	bd10      	pop	{r4, pc}
	...

08080f60 <_ZN9IPAddressC1Ehhhh>:
{
    memcpy(&this->address, &address, sizeof(address));
}


IPAddress::IPAddress(uint8_t first_octet, uint8_t second_octet, uint8_t third_octet, uint8_t fourth_octet)
 8080f60:	b537      	push	{r0, r1, r2, r4, r5, lr}
 8080f62:	4d04      	ldr	r5, [pc, #16]	; (8080f74 <_ZN9IPAddressC1Ehhhh+0x14>)
 8080f64:	6005      	str	r5, [r0, #0]
{
    set_ipv4(first_octet, second_octet, third_octet, fourth_octet);
 8080f66:	f89d 5018 	ldrb.w	r5, [sp, #24]
 8080f6a:	9500      	str	r5, [sp, #0]
 8080f6c:	f7ff ffec 	bl	8080f48 <_ZN9IPAddress8set_ipv4Ehhhh>
}
 8080f70:	b003      	add	sp, #12
 8080f72:	bd30      	pop	{r4, r5, pc}
 8080f74:	08082710 	.word	0x08082710

08080f78 <_GLOBAL__sub_I__ZN5spark3LogE>:
    // This handler doesn't support direct logging
}

// spark::Logger
inline spark::Logger::Logger(const char *name) :
        name_(name) {
 8080f78:	4a01      	ldr	r2, [pc, #4]	; (8080f80 <_GLOBAL__sub_I__ZN5spark3LogE+0x8>)
 8080f7a:	4b02      	ldr	r3, [pc, #8]	; (8080f84 <_GLOBAL__sub_I__ZN5spark3LogE+0xc>)
 8080f7c:	601a      	str	r2, [r3, #0]
 8080f7e:	4770      	bx	lr
 8080f80:	080827d5 	.word	0x080827d5
 8080f84:	200007f0 	.word	0x200007f0

08080f88 <_ZN5Print5writeEPKhj>:

// Public Methods //////////////////////////////////////////////////////////////

/* default implementation: may be overridden */
size_t Print::write(const uint8_t *buffer, size_t size)
{
 8080f88:	b5f8      	push	{r3, r4, r5, r6, r7, lr}
 8080f8a:	4606      	mov	r6, r0
 8080f8c:	460d      	mov	r5, r1
 8080f8e:	188f      	adds	r7, r1, r2
  size_t n = 0;
 8080f90:	2400      	movs	r4, #0
  while (size--) {
 8080f92:	42bd      	cmp	r5, r7
 8080f94:	d00c      	beq.n	8080fb0 <_ZN5Print5writeEPKhj+0x28>
     int chunk = write(*buffer++);
 8080f96:	6833      	ldr	r3, [r6, #0]
 8080f98:	f815 1b01 	ldrb.w	r1, [r5], #1
 8080f9c:	689b      	ldr	r3, [r3, #8]
 8080f9e:	4630      	mov	r0, r6
 8080fa0:	4798      	blx	r3
     if (chunk>=0)
 8080fa2:	2800      	cmp	r0, #0
 8080fa4:	db01      	blt.n	8080faa <_ZN5Print5writeEPKhj+0x22>
         n += chunk;
 8080fa6:	4404      	add	r4, r0

/* default implementation: may be overridden */
size_t Print::write(const uint8_t *buffer, size_t size)
{
  size_t n = 0;
  while (size--) {
 8080fa8:	e7f3      	b.n	8080f92 <_ZN5Print5writeEPKhj+0xa>
     int chunk = write(*buffer++);
 8080faa:	2c00      	cmp	r4, #0
 8080fac:	bf08      	it	eq
 8080fae:	4604      	moveq	r4, r0
             n = chunk;
         break;
     }
  }
  return n;
}
 8080fb0:	4620      	mov	r0, r4
 8080fb2:	bdf8      	pop	{r3, r4, r5, r6, r7, pc}

08080fb4 <_ZN5Print5writeEPKc>:

    int getWriteError() { return write_error; }
    void clearWriteError() { setWriteError(0); }

    virtual size_t write(uint8_t) = 0;
    size_t write(const char *str) {
 8080fb4:	b570      	push	{r4, r5, r6, lr}
 8080fb6:	4605      	mov	r5, r0
      if (str == NULL) return 0;
 8080fb8:	460c      	mov	r4, r1
      return write((const uint8_t *)str, strlen(str));
    }
 8080fba:	4608      	mov	r0, r1
    int getWriteError() { return write_error; }
    void clearWriteError() { setWriteError(0); }

    virtual size_t write(uint8_t) = 0;
    size_t write(const char *str) {
      if (str == NULL) return 0;
 8080fbc:	b149      	cbz	r1, 8080fd2 <_ZN5Print5writeEPKc+0x1e>
      return write((const uint8_t *)str, strlen(str));
 8080fbe:	f001 fa9b 	bl	80824f8 <strlen>
 8080fc2:	682b      	ldr	r3, [r5, #0]
 8080fc4:	4602      	mov	r2, r0
 8080fc6:	4621      	mov	r1, r4
 8080fc8:	4628      	mov	r0, r5
    }
 8080fca:	e8bd 4070 	ldmia.w	sp!, {r4, r5, r6, lr}
    void clearWriteError() { setWriteError(0); }

    virtual size_t write(uint8_t) = 0;
    size_t write(const char *str) {
      if (str == NULL) return 0;
      return write((const uint8_t *)str, strlen(str));
 8080fce:	68db      	ldr	r3, [r3, #12]
 8080fd0:	4718      	bx	r3
    }
 8080fd2:	bd70      	pop	{r4, r5, r6, pc}

08080fd4 <_ZN5Print5printEPKc>:
 8080fd4:	b508      	push	{r3, lr}
 8080fd6:	f7ff ffed 	bl	8080fb4 <_ZN5Print5writeEPKc>
 8080fda:	bd08      	pop	{r3, pc}

08080fdc <_ZN5Print5printEc>:
  return write(str);
}

size_t Print::print(char c)
{
  return write(c);
 8080fdc:	6803      	ldr	r3, [r0, #0]
 8080fde:	689b      	ldr	r3, [r3, #8]
 8080fe0:	4718      	bx	r3

08080fe2 <_ZN5Print7printlnEv>:
{
  return print(reinterpret_cast<const char*>(str));
}

size_t Print::println(void)
{
 8080fe2:	b538      	push	{r3, r4, r5, lr}
  size_t n = print('\r');
 8080fe4:	210d      	movs	r1, #13
{
  return print(reinterpret_cast<const char*>(str));
}

size_t Print::println(void)
{
 8080fe6:	4605      	mov	r5, r0
  size_t n = print('\r');
 8080fe8:	f7ff fff8 	bl	8080fdc <_ZN5Print5printEc>
  n += print('\n');
 8080fec:	210a      	movs	r1, #10
  return print(reinterpret_cast<const char*>(str));
}

size_t Print::println(void)
{
  size_t n = print('\r');
 8080fee:	4604      	mov	r4, r0
  n += print('\n');
 8080ff0:	4628      	mov	r0, r5
 8080ff2:	f7ff fff3 	bl	8080fdc <_ZN5Print5printEc>
  return n;
}
 8080ff6:	4420      	add	r0, r4
 8080ff8:	bd38      	pop	{r3, r4, r5, pc}

08080ffa <_ZN5Print11printNumberEmh>:
  char *str = &buf[sizeof(buf) - 1];

  *str = '\0';

  // prevent crash if called with base == 1
  if (base < 2) base = 10;
 8080ffa:	2a01      	cmp	r2, #1
 8080ffc:	bf98      	it	ls
 8080ffe:	220a      	movls	r2, #10
  return println(reinterpret_cast<const char*>(str));
}

// Private Methods /////////////////////////////////////////////////////////////

size_t Print::printNumber(unsigned long n, uint8_t base) {
 8081000:	b530      	push	{r4, r5, lr}
 8081002:	460b      	mov	r3, r1
 8081004:	b08b      	sub	sp, #44	; 0x2c
  char buf[8 * sizeof(long) + 1]; // Assumes 8-bit chars plus zero byte.
  char *str = &buf[sizeof(buf) - 1];

  *str = '\0';
 8081006:	2100      	movs	r1, #0
 8081008:	f88d 1024 	strb.w	r1, [sp, #36]	; 0x24
 808100c:	f10d 0423 	add.w	r4, sp, #35	; 0x23
  // prevent crash if called with base == 1
  if (base < 2) base = 10;

  do {
    unsigned long m = n;
    n /= base;
 8081010:	fbb3 f5f2 	udiv	r5, r3, r2
    char c = m - base * n;
 8081014:	fb05 3312 	mls	r3, r5, r2, r3
 8081018:	b2db      	uxtb	r3, r3
    *--str = c < 10 ? c + '0' : c + 'A' - 10;
 808101a:	2b09      	cmp	r3, #9
 808101c:	bf94      	ite	ls
 808101e:	3330      	addls	r3, #48	; 0x30
 8081020:	3337      	addhi	r3, #55	; 0x37
 8081022:	b2db      	uxtb	r3, r3
 8081024:	4621      	mov	r1, r4
 8081026:	f804 3901 	strb.w	r3, [r4], #-1
 808102a:	462b      	mov	r3, r5
  *str = '\0';

  // prevent crash if called with base == 1
  if (base < 2) base = 10;

  do {
 808102c:	2d00      	cmp	r5, #0
 808102e:	d1ef      	bne.n	8081010 <_ZN5Print11printNumberEmh+0x16>
    n /= base;
    char c = m - base * n;
    *--str = c < 10 ? c + '0' : c + 'A' - 10;
  } while(n);

  return write(str);
 8081030:	f7ff ffc0 	bl	8080fb4 <_ZN5Print5writeEPKc>
}
 8081034:	b00b      	add	sp, #44	; 0x2c
 8081036:	bd30      	pop	{r4, r5, pc}

08081038 <_ZN5Print5printEmi>:
    return printNumber(n, base);
  }
}

size_t Print::print(unsigned long n, int base)
{
 8081038:	b410      	push	{r4}
  if (base == 0) return write(n);
 808103a:	b922      	cbnz	r2, 8081046 <_ZN5Print5printEmi+0xe>
 808103c:	6803      	ldr	r3, [r0, #0]
 808103e:	b2c9      	uxtb	r1, r1
 8081040:	689b      	ldr	r3, [r3, #8]
  else return printNumber(n, base);
}
 8081042:	bc10      	pop	{r4}
  }
}

size_t Print::print(unsigned long n, int base)
{
  if (base == 0) return write(n);
 8081044:	4718      	bx	r3
  else return printNumber(n, base);
 8081046:	b2d2      	uxtb	r2, r2
}
 8081048:	bc10      	pop	{r4}
}

size_t Print::print(unsigned long n, int base)
{
  if (base == 0) return write(n);
  else return printNumber(n, base);
 808104a:	f7ff bfd6 	b.w	8080ffa <_ZN5Print11printNumberEmh>

0808104e <_ZN5Print5printEhi>:
  return write(c);
}

size_t Print::print(unsigned char b, int base)
{
  return print((unsigned long) b, base);
 808104e:	f7ff bff3 	b.w	8081038 <_ZN5Print5printEmi>

08081052 <_ZN5Print5printEli>:
{
  return print((unsigned long) n, base);
}

size_t Print::print(long n, int base)
{
 8081052:	e92d 41f0 	stmdb	sp!, {r4, r5, r6, r7, r8, lr}
 8081056:	4607      	mov	r7, r0
 8081058:	460e      	mov	r6, r1
  if (base == 0) {
 808105a:	4615      	mov	r5, r2
 808105c:	b92a      	cbnz	r2, 808106a <_ZN5Print5printEli+0x18>
    }
    return printNumber(n, 10);
  } else {
    return printNumber(n, base);
  }
}
 808105e:	e8bd 41f0 	ldmia.w	sp!, {r4, r5, r6, r7, r8, lr}
}

size_t Print::print(long n, int base)
{
  if (base == 0) {
    return write(n);
 8081062:	6803      	ldr	r3, [r0, #0]
 8081064:	b2c9      	uxtb	r1, r1
 8081066:	689b      	ldr	r3, [r3, #8]
 8081068:	4718      	bx	r3
  } else if (base == 10) {
 808106a:	2a0a      	cmp	r2, #10
 808106c:	d102      	bne.n	8081074 <_ZN5Print5printEli+0x22>
    if (n < 0) {
 808106e:	2900      	cmp	r1, #0
 8081070:	da01      	bge.n	8081076 <_ZN5Print5printEli+0x24>
 8081072:	e004      	b.n	808107e <_ZN5Print5printEli+0x2c>
      n = -n;
      return printNumber(n, 10) + t;
    }
    return printNumber(n, 10);
  } else {
    return printNumber(n, base);
 8081074:	b2d2      	uxtb	r2, r2
  }
}
 8081076:	e8bd 41f0 	ldmia.w	sp!, {r4, r5, r6, r7, r8, lr}
      n = -n;
      return printNumber(n, 10) + t;
    }
    return printNumber(n, 10);
  } else {
    return printNumber(n, base);
 808107a:	f7ff bfbe 	b.w	8080ffa <_ZN5Print11printNumberEmh>
{
  if (base == 0) {
    return write(n);
  } else if (base == 10) {
    if (n < 0) {
      int t = print('-');
 808107e:	212d      	movs	r1, #45	; 0x2d
 8081080:	f7ff ffac 	bl	8080fdc <_ZN5Print5printEc>
      n = -n;
      return printNumber(n, 10) + t;
 8081084:	462a      	mov	r2, r5
{
  if (base == 0) {
    return write(n);
  } else if (base == 10) {
    if (n < 0) {
      int t = print('-');
 8081086:	4604      	mov	r4, r0
      n = -n;
      return printNumber(n, 10) + t;
 8081088:	4271      	negs	r1, r6
 808108a:	4638      	mov	r0, r7
 808108c:	f7ff ffb5 	bl	8080ffa <_ZN5Print11printNumberEmh>
 8081090:	4420      	add	r0, r4
    }
    return printNumber(n, 10);
  } else {
    return printNumber(n, base);
  }
}
 8081092:	e8bd 81f0 	ldmia.w	sp!, {r4, r5, r6, r7, r8, pc}

08081096 <_ZN5Print5printEii>:
  return print((unsigned long) b, base);
}

size_t Print::print(int n, int base)
{
  return print((long) n, base);
 8081096:	f7ff bfdc 	b.w	8081052 <_ZN5Print5printEli>
	...

0808109c <_ZN5Print10printFloatEdh>:

  return write(str);
}

size_t Print::printFloat(double number, uint8_t digits)
{
 808109c:	e92d 43f8 	stmdb	sp!, {r3, r4, r5, r6, r7, r8, r9, lr}
  size_t n = 0;

  if (isnan(number)) return print("nan");
 80810a0:	4619      	mov	r1, r3

  return write(str);
}

size_t Print::printFloat(double number, uint8_t digits)
{
 80810a2:	4680      	mov	r8, r0
  size_t n = 0;

  if (isnan(number)) return print("nan");
 80810a4:	4610      	mov	r0, r2

  return write(str);
}

size_t Print::printFloat(double number, uint8_t digits)
{
 80810a6:	4617      	mov	r7, r2
 80810a8:	461e      	mov	r6, r3
 80810aa:	f89d 5020 	ldrb.w	r5, [sp, #32]
  size_t n = 0;

  if (isnan(number)) return print("nan");
 80810ae:	f001 f965 	bl	808237c <__aeabi_dcmpun>
 80810b2:	b108      	cbz	r0, 80810b8 <_ZN5Print10printFloatEdh+0x1c>
  return n;
}

size_t Print::print(const char str[])
{
  return write(str);
 80810b4:	4947      	ldr	r1, [pc, #284]	; (80811d4 <_ZN5Print10printFloatEdh+0x138>)
 80810b6:	e012      	b.n	80810de <_ZN5Print10printFloatEdh+0x42>
size_t Print::printFloat(double number, uint8_t digits)
{
  size_t n = 0;

  if (isnan(number)) return print("nan");
  if (isinf(number)) return print("inf");
 80810b8:	f026 4400 	bic.w	r4, r6, #2147483648	; 0x80000000
 80810bc:	f04f 32ff 	mov.w	r2, #4294967295	; 0xffffffff
 80810c0:	4b45      	ldr	r3, [pc, #276]	; (80811d8 <_ZN5Print10printFloatEdh+0x13c>)
 80810c2:	4638      	mov	r0, r7
 80810c4:	4621      	mov	r1, r4
 80810c6:	f001 f959 	bl	808237c <__aeabi_dcmpun>
 80810ca:	b968      	cbnz	r0, 80810e8 <_ZN5Print10printFloatEdh+0x4c>
 80810cc:	f04f 32ff 	mov.w	r2, #4294967295	; 0xffffffff
 80810d0:	4b41      	ldr	r3, [pc, #260]	; (80811d8 <_ZN5Print10printFloatEdh+0x13c>)
 80810d2:	4638      	mov	r0, r7
 80810d4:	4621      	mov	r1, r4
 80810d6:	f001 f933 	bl	8082340 <__aeabi_dcmple>
 80810da:	b928      	cbnz	r0, 80810e8 <_ZN5Print10printFloatEdh+0x4c>
  return n;
}

size_t Print::print(const char str[])
{
  return write(str);
 80810dc:	493f      	ldr	r1, [pc, #252]	; (80811dc <_ZN5Print10printFloatEdh+0x140>)
 80810de:	4640      	mov	r0, r8
 80810e0:	f7ff ff68 	bl	8080fb4 <_ZN5Print5writeEPKc>
size_t Print::printFloat(double number, uint8_t digits)
{
  size_t n = 0;

  if (isnan(number)) return print("nan");
  if (isinf(number)) return print("inf");
 80810e4:	e8bd 83f8 	ldmia.w	sp!, {r3, r4, r5, r6, r7, r8, r9, pc}
  if (number > 4294967040.0) return print ("ovf");  // constant determined empirically
 80810e8:	f04f 4260 	mov.w	r2, #3758096384	; 0xe0000000
 80810ec:	4b3c      	ldr	r3, [pc, #240]	; (80811e0 <_ZN5Print10printFloatEdh+0x144>)
 80810ee:	4638      	mov	r0, r7
 80810f0:	4631      	mov	r1, r6
 80810f2:	f001 f939 	bl	8082368 <__aeabi_dcmpgt>
 80810f6:	b108      	cbz	r0, 80810fc <_ZN5Print10printFloatEdh+0x60>
  return n;
}

size_t Print::print(const char str[])
{
  return write(str);
 80810f8:	493a      	ldr	r1, [pc, #232]	; (80811e4 <_ZN5Print10printFloatEdh+0x148>)
 80810fa:	e7f0      	b.n	80810de <_ZN5Print10printFloatEdh+0x42>
  size_t n = 0;

  if (isnan(number)) return print("nan");
  if (isinf(number)) return print("inf");
  if (number > 4294967040.0) return print ("ovf");  // constant determined empirically
  if (number <-4294967040.0) return print ("ovf");  // constant determined empirically
 80810fc:	f04f 4260 	mov.w	r2, #3758096384	; 0xe0000000
 8081100:	4b39      	ldr	r3, [pc, #228]	; (80811e8 <_ZN5Print10printFloatEdh+0x14c>)
 8081102:	4638      	mov	r0, r7
 8081104:	4631      	mov	r1, r6
 8081106:	f001 f911 	bl	808232c <__aeabi_dcmplt>
 808110a:	2800      	cmp	r0, #0
 808110c:	d1f4      	bne.n	80810f8 <_ZN5Print10printFloatEdh+0x5c>

  // Handle negative numbers
  if (number < 0.0)
 808110e:	2200      	movs	r2, #0
 8081110:	2300      	movs	r3, #0
 8081112:	4638      	mov	r0, r7
 8081114:	4631      	mov	r1, r6
 8081116:	f001 f909 	bl	808232c <__aeabi_dcmplt>
 808111a:	b138      	cbz	r0, 808112c <_ZN5Print10printFloatEdh+0x90>
  {
     n += print('-');
 808111c:	212d      	movs	r1, #45	; 0x2d
 808111e:	4640      	mov	r0, r8
 8081120:	f7ff ff5c 	bl	8080fdc <_ZN5Print5printEc>
     number = -number;
 8081124:	f106 4600 	add.w	r6, r6, #2147483648	; 0x80000000
  if (number <-4294967040.0) return print ("ovf");  // constant determined empirically

  // Handle negative numbers
  if (number < 0.0)
  {
     n += print('-');
 8081128:	4604      	mov	r4, r0
 808112a:	e000      	b.n	808112e <_ZN5Print10printFloatEdh+0x92>
  return write(str);
}

size_t Print::printFloat(double number, uint8_t digits)
{
  size_t n = 0;
 808112c:	4604      	mov	r4, r0
     n += print('-');
     number = -number;
  }

  // Round correctly so that print(1.999, 2) prints as "2.00"
  double rounding = 0.5;
 808112e:	492f      	ldr	r1, [pc, #188]	; (80811ec <_ZN5Print10printFloatEdh+0x150>)
  return write(str);
}

size_t Print::printFloat(double number, uint8_t digits)
{
  size_t n = 0;
 8081130:	f04f 0900 	mov.w	r9, #0
     n += print('-');
     number = -number;
  }

  // Round correctly so that print(1.999, 2) prints as "2.00"
  double rounding = 0.5;
 8081134:	2000      	movs	r0, #0
  for (uint8_t i=0; i<digits; ++i)
 8081136:	fa5f f389 	uxtb.w	r3, r9
 808113a:	429d      	cmp	r5, r3
 808113c:	d906      	bls.n	808114c <_ZN5Print10printFloatEdh+0xb0>
    rounding /= 10.0;
 808113e:	2200      	movs	r2, #0
 8081140:	4b2b      	ldr	r3, [pc, #172]	; (80811f0 <_ZN5Print10printFloatEdh+0x154>)
 8081142:	f000 ffab 	bl	808209c <__aeabi_ddiv>
 8081146:	f109 0901 	add.w	r9, r9, #1
 808114a:	e7f4      	b.n	8081136 <_ZN5Print10printFloatEdh+0x9a>

  number += rounding;
 808114c:	463a      	mov	r2, r7
 808114e:	4633      	mov	r3, r6
 8081150:	f000 fcc8 	bl	8081ae4 <__adddf3>
 8081154:	460f      	mov	r7, r1
 8081156:	4606      	mov	r6, r0

  // Extract the integer part of the number and print it
  unsigned long int_part = (unsigned long)number;
 8081158:	f001 f94e 	bl	80823f8 <__aeabi_d2uiz>
}

size_t Print::print(unsigned long n, int base)
{
  if (base == 0) return write(n);
  else return printNumber(n, base);
 808115c:	220a      	movs	r2, #10
 808115e:	4601      	mov	r1, r0
    rounding /= 10.0;

  number += rounding;

  // Extract the integer part of the number and print it
  unsigned long int_part = (unsigned long)number;
 8081160:	4681      	mov	r9, r0
}

size_t Print::print(unsigned long n, int base)
{
  if (base == 0) return write(n);
  else return printNumber(n, base);
 8081162:	4640      	mov	r0, r8
 8081164:	f7ff ff49 	bl	8080ffa <_ZN5Print11printNumberEmh>
  number += rounding;

  // Extract the integer part of the number and print it
  unsigned long int_part = (unsigned long)number;
  double remainder = number - (double)int_part;
  n += print(int_part);
 8081168:	4404      	add	r4, r0

  // Print the decimal point, but only if there are digits beyond
  if (digits > 0) {
 808116a:	b37d      	cbz	r5, 80811cc <_ZN5Print10printFloatEdh+0x130>

  number += rounding;

  // Extract the integer part of the number and print it
  unsigned long int_part = (unsigned long)number;
  double remainder = number - (double)int_part;
 808116c:	4648      	mov	r0, r9
 808116e:	f000 fdf5 	bl	8081d5c <__aeabi_ui2d>
 8081172:	4602      	mov	r2, r0
 8081174:	460b      	mov	r3, r1
 8081176:	4630      	mov	r0, r6
 8081178:	4639      	mov	r1, r7
 808117a:	f000 fcb1 	bl	8081ae0 <__aeabi_dsub>
 808117e:	4606      	mov	r6, r0
 8081180:	460f      	mov	r7, r1
  return n;
}

size_t Print::print(const char str[])
{
  return write(str);
 8081182:	4640      	mov	r0, r8
 8081184:	491b      	ldr	r1, [pc, #108]	; (80811f4 <_ZN5Print10printFloatEdh+0x158>)
 8081186:	f7ff ff15 	bl	8080fb4 <_ZN5Print5writeEPKc>
  double remainder = number - (double)int_part;
  n += print(int_part);

  // Print the decimal point, but only if there are digits beyond
  if (digits > 0) {
    n += print(".");
 808118a:	4404      	add	r4, r0
  }

  // Extract digits from the remainder one at a time
  while (digits-- > 0)
  {
    remainder *= 10.0;
 808118c:	4b18      	ldr	r3, [pc, #96]	; (80811f0 <_ZN5Print10printFloatEdh+0x154>)
 808118e:	2200      	movs	r2, #0
 8081190:	4630      	mov	r0, r6
 8081192:	4639      	mov	r1, r7
 8081194:	f000 fe58 	bl	8081e48 <__aeabi_dmul>
 8081198:	460f      	mov	r7, r1
 808119a:	4606      	mov	r6, r0
    int toPrint = int(remainder);
 808119c:	f001 f904 	bl	80823a8 <__aeabi_d2iz>
  return print((unsigned long) b, base);
}

size_t Print::print(int n, int base)
{
  return print((long) n, base);
 80811a0:	220a      	movs	r2, #10
 80811a2:	4601      	mov	r1, r0

  // Extract digits from the remainder one at a time
  while (digits-- > 0)
  {
    remainder *= 10.0;
    int toPrint = int(remainder);
 80811a4:	4681      	mov	r9, r0
  return print((unsigned long) b, base);
}

size_t Print::print(int n, int base)
{
  return print((long) n, base);
 80811a6:	4640      	mov	r0, r8
 80811a8:	f7ff ff53 	bl	8081052 <_ZN5Print5printEli>
  // Extract digits from the remainder one at a time
  while (digits-- > 0)
  {
    remainder *= 10.0;
    int toPrint = int(remainder);
    n += print(toPrint);
 80811ac:	4404      	add	r4, r0
    remainder -= toPrint;
 80811ae:	4648      	mov	r0, r9
 80811b0:	f000 fde4 	bl	8081d7c <__aeabi_i2d>
 80811b4:	4602      	mov	r2, r0
 80811b6:	460b      	mov	r3, r1
 80811b8:	4630      	mov	r0, r6
 80811ba:	4639      	mov	r1, r7
 80811bc:	f000 fc90 	bl	8081ae0 <__aeabi_dsub>
 80811c0:	3d01      	subs	r5, #1
  if (digits > 0) {
    n += print(".");
  }

  // Extract digits from the remainder one at a time
  while (digits-- > 0)
 80811c2:	f015 05ff 	ands.w	r5, r5, #255	; 0xff
  {
    remainder *= 10.0;
    int toPrint = int(remainder);
    n += print(toPrint);
    remainder -= toPrint;
 80811c6:	4606      	mov	r6, r0
 80811c8:	460f      	mov	r7, r1
  if (digits > 0) {
    n += print(".");
  }

  // Extract digits from the remainder one at a time
  while (digits-- > 0)
 80811ca:	d1df      	bne.n	808118c <_ZN5Print10printFloatEdh+0xf0>
  number += rounding;

  // Extract the integer part of the number and print it
  unsigned long int_part = (unsigned long)number;
  double remainder = number - (double)int_part;
  n += print(int_part);
 80811cc:	4620      	mov	r0, r4
 80811ce:	e8bd 83f8 	ldmia.w	sp!, {r3, r4, r5, r6, r7, r8, r9, pc}
 80811d2:	bf00      	nop
 80811d4:	080827fe 	.word	0x080827fe
 80811d8:	7fefffff 	.word	0x7fefffff
 80811dc:	08082806 	.word	0x08082806
 80811e0:	41efffff 	.word	0x41efffff
 80811e4:	08082802 	.word	0x08082802
 80811e8:	c1efffff 	.word	0xc1efffff
 80811ec:	3fe00000 	.word	0x3fe00000
 80811f0:	40240000 	.word	0x40240000
 80811f4:	08082695 	.word	0x08082695

080811f8 <_ZN5Print5printEdi>:
  else return printNumber(n, base);
}

size_t Print::print(double n, int digits)
{
  return printFloat(n, digits);
 80811f8:	f89d 1000 	ldrb.w	r1, [sp]
 80811fc:	9100      	str	r1, [sp, #0]
 80811fe:	f7ff bf4d 	b.w	808109c <_ZN5Print10printFloatEdh>

08081202 <_ZN5Print11printf_implEbPKcz>:

  return n;
}

size_t Print::printf_impl(bool newline, const char* format, ...)
{
 8081202:	b40c      	push	{r2, r3}
 8081204:	e92d 43f0 	stmdb	sp!, {r4, r5, r6, r7, r8, r9, lr}
 8081208:	b087      	sub	sp, #28
 808120a:	af00      	add	r7, sp, #0
 808120c:	f107 0438 	add.w	r4, r7, #56	; 0x38
 8081210:	f854 9b04 	ldr.w	r9, [r4], #4
 8081214:	4605      	mov	r5, r0
 8081216:	460e      	mov	r6, r1
    const int bufsize = 20;
    char test[bufsize];
    va_list marker;
    va_start(marker, format);
    size_t n = vsnprintf(test, bufsize, format, marker);
 8081218:	4623      	mov	r3, r4
 808121a:	464a      	mov	r2, r9
 808121c:	2114      	movs	r1, #20
 808121e:	1d38      	adds	r0, r7, #4
size_t Print::printf_impl(bool newline, const char* format, ...)
{
    const int bufsize = 20;
    char test[bufsize];
    va_list marker;
    va_start(marker, format);
 8081220:	603c      	str	r4, [r7, #0]
    size_t n = vsnprintf(test, bufsize, format, marker);
 8081222:	f7ff fdf9 	bl	8080e18 <vsnprintf>
    va_end(marker);

    if (n<bufsize)
 8081226:	2813      	cmp	r0, #19
 8081228:	d805      	bhi.n	8081236 <_ZN5Print11printf_implEbPKcz+0x34>
  return n;
}

size_t Print::print(const char str[])
{
  return write(str);
 808122a:	1d39      	adds	r1, r7, #4
 808122c:	4628      	mov	r0, r5
 808122e:	f7ff fec1 	bl	8080fb4 <_ZN5Print5writeEPKc>
 8081232:	4604      	mov	r4, r0
 8081234:	e013      	b.n	808125e <_ZN5Print11printf_implEbPKcz+0x5c>
    {
        n = print(test);
    }
    else
    {
        char bigger[n+1];
 8081236:	f100 0308 	add.w	r3, r0, #8
 808123a:	f023 0307 	bic.w	r3, r3, #7
        va_start(marker, format);
        n = vsnprintf(bigger, n+1, format, marker);
        va_end(marker);
        n = print(bigger);
 808123e:	46e8      	mov	r8, sp
    {
        n = print(test);
    }
    else
    {
        char bigger[n+1];
 8081240:	ebad 0d03 	sub.w	sp, sp, r3
        va_start(marker, format);
        n = vsnprintf(bigger, n+1, format, marker);
 8081244:	1c41      	adds	r1, r0, #1
 8081246:	4623      	mov	r3, r4
 8081248:	464a      	mov	r2, r9
 808124a:	4668      	mov	r0, sp
        n = print(test);
    }
    else
    {
        char bigger[n+1];
        va_start(marker, format);
 808124c:	603c      	str	r4, [r7, #0]
        n = vsnprintf(bigger, n+1, format, marker);
 808124e:	f7ff fde3 	bl	8080e18 <vsnprintf>
  return n;
}

size_t Print::print(const char str[])
{
  return write(str);
 8081252:	4669      	mov	r1, sp
 8081254:	4628      	mov	r0, r5
 8081256:	f7ff fead 	bl	8080fb4 <_ZN5Print5writeEPKc>
 808125a:	4604      	mov	r4, r0
 808125c:	46c5      	mov	sp, r8
        va_start(marker, format);
        n = vsnprintf(bigger, n+1, format, marker);
        va_end(marker);
        n = print(bigger);
    }
    if (newline)
 808125e:	b11e      	cbz	r6, 8081268 <_ZN5Print11printf_implEbPKcz+0x66>
        n += println();
 8081260:	4628      	mov	r0, r5
 8081262:	f7ff febe 	bl	8080fe2 <_ZN5Print7printlnEv>
 8081266:	4404      	add	r4, r0
    return n;
}
 8081268:	4620      	mov	r0, r4
 808126a:	371c      	adds	r7, #28
 808126c:	46bd      	mov	sp, r7
 808126e:	e8bd 43f0 	ldmia.w	sp!, {r4, r5, r6, r7, r8, r9, lr}
 8081272:	b002      	add	sp, #8
 8081274:	4770      	bx	lr

08081276 <_ZN8RGBClassD1Ev>:
#include "rgbled.h"

typedef void (raw_rgb_change_handler_t)(uint8_t, uint8_t, uint8_t);
typedef std::function<raw_rgb_change_handler_t> wiring_rgb_change_handler_t;

class RGBClass {
 8081276:	b510      	push	{r4, lr}
 8081278:	4604      	mov	r4, r0
   *  @ingroup functors
   *
   *  Polymorphic function wrapper.
   */
  template<typename _Res, typename... _ArgTypes>
    class function<_Res(_ArgTypes...)>
 808127a:	f7ff fdfb 	bl	8080e74 <_ZNSt14_Function_baseD1Ev>
 808127e:	4620      	mov	r0, r4
 8081280:	bd10      	pop	{r4, pc}
	...

08081284 <_GLOBAL__sub_I_RGB>:
	{
	  _Base::_M_init_functor(__functor, std::__addressof(__f.get()));
	}
      };

    _Function_base() : _M_manager(nullptr) { }
 8081284:	4803      	ldr	r0, [pc, #12]	; (8081294 <_GLOBAL__sub_I_RGB+0x10>)
 8081286:	2300      	movs	r3, #0
 8081288:	6083      	str	r3, [r0, #8]
#include "spark_wiring_rgb.h"
#include "spark_wiring_interrupts.h"

#include "core_hal.h"

RGBClass RGB;
 808128a:	4a03      	ldr	r2, [pc, #12]	; (8081298 <_GLOBAL__sub_I_RGB+0x14>)
 808128c:	4903      	ldr	r1, [pc, #12]	; (808129c <_GLOBAL__sub_I_RGB+0x18>)
 808128e:	f000 bad5 	b.w	808183c <__aeabi_atexit>
 8081292:	bf00      	nop
 8081294:	200007f4 	.word	0x200007f4
 8081298:	20000470 	.word	0x20000470
 808129c:	08081277 	.word	0x08081277

080812a0 <_ZN8SPIClassD1Ev>:
  Mutex mutex_;
#endif

public:
  SPIClass(HAL_SPI_Interface spi);
  virtual ~SPIClass() {};
 80812a0:	4770      	bx	lr

080812a2 <_ZN8SPIClassD0Ev>:
 80812a2:	b510      	push	{r4, lr}
 80812a4:	4604      	mov	r4, r0
 80812a6:	f7fe fef8 	bl	808009a <_ZdlPv>
 80812aa:	4620      	mov	r0, r4
 80812ac:	bd10      	pop	{r4, pc}
	...

080812b0 <_ZN8SPIClassC1E17HAL_SPI_Interface>:
  if (!info->enabled || info->default_settings)
    return particle::__SPISettings();
  return particle::__SPISettings(info->clock, info->bit_order, info->data_mode);
}

SPIClass::SPIClass(HAL_SPI_Interface spi)
 80812b0:	b570      	push	{r4, r5, r6, lr}
 80812b2:	4604      	mov	r4, r0
 80812b4:	460e      	mov	r6, r1
 80812b6:	4b07      	ldr	r3, [pc, #28]	; (80812d4 <_ZN8SPIClassC1E17HAL_SPI_Interface+0x24>)
    Mutex(os_mutex_t handle) : handle_(handle) {}

    /**
     * Creates a new mutex.
     */
    Mutex() : handle_(nullptr)
 80812b8:	2500      	movs	r5, #0
 80812ba:	6003      	str	r3, [r0, #0]
 80812bc:	f840 5f0c 	str.w	r5, [r0, #12]!
    {
        os_mutex_create(&handle_);
 80812c0:	f7ff fc4e 	bl	8080b60 <os_mutex_create>
{
  _spi = spi;
  HAL_SPI_Init(_spi);
 80812c4:	4630      	mov	r0, r6
  return particle::__SPISettings(info->clock, info->bit_order, info->data_mode);
}

SPIClass::SPIClass(HAL_SPI_Interface spi)
{
  _spi = spi;
 80812c6:	7126      	strb	r6, [r4, #4]
  HAL_SPI_Init(_spi);
 80812c8:	f7ff fcc2 	bl	8080c50 <HAL_SPI_Init>
  dividerReference = SPI_CLK_SYSTEM;     // 0 indicates the system clock
 80812cc:	60a5      	str	r5, [r4, #8]
}
 80812ce:	4620      	mov	r0, r4
 80812d0:	bd70      	pop	{r4, r5, r6, pc}
 80812d2:	bf00      	nop
 80812d4:	08082814 	.word	0x08082814

080812d8 <_ZN8SPIClass9isEnabledEv>:
  //To Do
}

bool SPIClass::isEnabled()
{
  return HAL_SPI_Is_Enabled(_spi);
 80812d8:	7900      	ldrb	r0, [r0, #4]
 80812da:	f7ff bcc1 	b.w	8080c60 <HAL_SPI_Is_Enabled>
	...

080812e0 <_GLOBAL__sub_I_System>:
    WAKEUP_REASON_RTC = 2,
    WAKEUP_REASON_PIN_OR_RTC = 3
};

struct SleepResult {
    SleepResult() {}
 80812e0:	f64f 739c 	movw	r3, #65436	; 0xff9c
    return wokenUpByRtc();
}

system_error_t SleepResult::error() const {
    return err_;
}
 80812e4:	b537      	push	{r0, r1, r2, r4, r5, lr}
 80812e6:	4c0d      	ldr	r4, [pc, #52]	; (808131c <_GLOBAL__sub_I_System+0x3c>)
 80812e8:	2500      	movs	r5, #0
 80812ea:	8063      	strh	r3, [r4, #2]
 80812ec:	f64f 73ff 	movw	r3, #65535	; 0xffff

class SystemClass {
public:

    SystemClass(System_Mode_TypeDef mode = DEFAULT) {
        set_system_mode(mode);
 80812f0:	4628      	mov	r0, r5
    WAKEUP_REASON_RTC = 2,
    WAKEUP_REASON_PIN_OR_RTC = 3
};

struct SleepResult {
    SleepResult() {}
 80812f2:	80a3      	strh	r3, [r4, #4]
 80812f4:	7025      	strb	r5, [r4, #0]

class SystemClass {
public:

    SystemClass(System_Mode_TypeDef mode = DEFAULT) {
        set_system_mode(mode);
 80812f6:	f7ff fd43 	bl	8080d80 <set_system_mode>
        return get_flag(flag) != 0;
    }

    inline int resetReason() const
    {
        int reason = RESET_REASON_NONE;
 80812fa:	a802      	add	r0, sp, #8
 80812fc:	f840 5d04 	str.w	r5, [r0, #-4]!
        HAL_Core_Get_Last_Reset_Info(&reason, nullptr, nullptr);
 8081300:	462a      	mov	r2, r5
 8081302:	4629      	mov	r1, r5
 8081304:	f7ff fc34 	bl	8080b70 <HAL_Core_Get_Last_Reset_Info>
        return reason;
 8081308:	9b01      	ldr	r3, [sp, #4]
class SystemClass {
public:

    SystemClass(System_Mode_TypeDef mode = DEFAULT) {
        set_system_mode(mode);
        if (resetReason() == RESET_REASON_POWER_MANAGEMENT) {
 808130a:	2b1e      	cmp	r3, #30
 808130c:	d104      	bne.n	8081318 <_GLOBAL__sub_I_System+0x38>
            // Woken up from standby mode
            sleepResult_ = SleepResult(WAKEUP_REASON_PIN_OR_RTC, SYSTEM_ERROR_NONE, WKP);
 808130e:	2303      	movs	r3, #3
 8081310:	7023      	strb	r3, [r4, #0]
 8081312:	2311      	movs	r3, #17
 8081314:	8065      	strh	r5, [r4, #2]
 8081316:	80a3      	strh	r3, [r4, #4]
 8081318:	b003      	add	sp, #12
 808131a:	bd30      	pop	{r4, r5, pc}
 808131c:	20000804 	.word	0x20000804

08081320 <_GLOBAL__sub_I_TIME_FORMAT_DEFAULT>:
            calendar_time_cache = Convert_UnixTime_To_CalendarTime(unix_time);
            unix_time_cache = unix_time;
    }
}

const char* TimeClass::format_spec = TIME_FORMAT_DEFAULT;
 8081320:	4b02      	ldr	r3, [pc, #8]	; (808132c <_GLOBAL__sub_I_TIME_FORMAT_DEFAULT+0xc>)
 8081322:	681a      	ldr	r2, [r3, #0]
 8081324:	4b02      	ldr	r3, [pc, #8]	; (8081330 <_GLOBAL__sub_I_TIME_FORMAT_DEFAULT+0x10>)
 8081326:	601a      	str	r2, [r3, #0]
 8081328:	4770      	bx	lr
 808132a:	bf00      	nop
 808132c:	20000404 	.word	0x20000404
 8081330:	2000080c 	.word	0x2000080c

08081334 <_ZN11USARTSerial14blockOnOverrunEb>:
    HAL_USART_Half_Duplex(_serial, Enable);
}

void USARTSerial::blockOnOverrun(bool block)
{
  _blocking = block;
 8081334:	7441      	strb	r1, [r0, #17]
 8081336:	4770      	bx	lr

08081338 <_ZN11USARTSerial17availableForWriteEv>:
}


int USARTSerial::availableForWrite(void)
{
  return HAL_USART_Available_Data_For_Write(_serial);
 8081338:	7c00      	ldrb	r0, [r0, #16]
 808133a:	f7ff bcd1 	b.w	8080ce0 <HAL_USART_Available_Data_For_Write>

0808133e <_ZN11USARTSerial9availableEv>:
}

int USARTSerial::available(void)
{
  return HAL_USART_Available_Data(_serial);
 808133e:	7c00      	ldrb	r0, [r0, #16]
 8081340:	f7ff bca6 	b.w	8080c90 <HAL_USART_Available_Data>

08081344 <_ZN11USARTSerial4peekEv>:
}

int USARTSerial::peek(void)
{
  return HAL_USART_Peek_Data(_serial);
 8081344:	7c00      	ldrb	r0, [r0, #16]
 8081346:	f7ff bcb3 	b.w	8080cb0 <HAL_USART_Peek_Data>

0808134a <_ZN11USARTSerial4readEv>:
}

int USARTSerial::read(void)
{
  return HAL_USART_Read_Data(_serial);
 808134a:	7c00      	ldrb	r0, [r0, #16]
 808134c:	f7ff bca8 	b.w	8080ca0 <HAL_USART_Read_Data>

08081350 <_ZN11USARTSerial5flushEv>:
}

void USARTSerial::flush()
{
  HAL_USART_Flush_Data(_serial);
 8081350:	7c00      	ldrb	r0, [r0, #16]
 8081352:	f7ff bcb5 	b.w	8080cc0 <HAL_USART_Flush_Data>

08081356 <_ZN11USARTSerial5writeEh>:
}

size_t USARTSerial::write(uint8_t c)
{
 8081356:	b570      	push	{r4, r5, r6, lr}
  // attempt a write if blocking, or for non-blocking if there is room.
  if (_blocking || HAL_USART_Available_Data_For_Write(_serial) > 0) {
 8081358:	7c45      	ldrb	r5, [r0, #17]
{
  HAL_USART_Flush_Data(_serial);
}

size_t USARTSerial::write(uint8_t c)
{
 808135a:	4604      	mov	r4, r0
 808135c:	460e      	mov	r6, r1
  // attempt a write if blocking, or for non-blocking if there is room.
  if (_blocking || HAL_USART_Available_Data_For_Write(_serial) > 0) {
 808135e:	b925      	cbnz	r5, 808136a <_ZN11USARTSerial5writeEh+0x14>
 8081360:	7c00      	ldrb	r0, [r0, #16]
 8081362:	f7ff fcbd 	bl	8080ce0 <HAL_USART_Available_Data_For_Write>
 8081366:	2800      	cmp	r0, #0
 8081368:	dd05      	ble.n	8081376 <_ZN11USARTSerial5writeEh+0x20>
    // the HAL always blocks.
	  return HAL_USART_Write_Data(_serial, c);
 808136a:	4631      	mov	r1, r6
 808136c:	7c20      	ldrb	r0, [r4, #16]
  }
  return 0;
}
 808136e:	e8bd 4070 	ldmia.w	sp!, {r4, r5, r6, lr}
size_t USARTSerial::write(uint8_t c)
{
  // attempt a write if blocking, or for non-blocking if there is room.
  if (_blocking || HAL_USART_Available_Data_For_Write(_serial) > 0) {
    // the HAL always blocks.
	  return HAL_USART_Write_Data(_serial, c);
 8081372:	f7ff bc85 	b.w	8080c80 <HAL_USART_Write_Data>
  }
  return 0;
}
 8081376:	4628      	mov	r0, r5
 8081378:	bd70      	pop	{r4, r5, r6, pc}
	...

0808137c <_ZN11USARTSerialC1E16HAL_USART_SerialP11Ring_BufferS2_>:
#include "spark_wiring_constants.h"
#include "module_info.h"

// Constructors ////////////////////////////////////////////////////////////////

USARTSerial::USARTSerial(HAL_USART_Serial serial, Ring_Buffer *rx_buffer, Ring_Buffer *tx_buffer)
 808137c:	b510      	push	{r4, lr}
 808137e:	4604      	mov	r4, r0
 8081380:	4608      	mov	r0, r1
 8081382:	4611      	mov	r1, r2
  protected:
    void setWriteError(int err = 1) { write_error = err; }
    size_t printf_impl(bool newline, const char* format, ...);

  public:
    Print() : write_error(0) {}
 8081384:	2200      	movs	r2, #0
 8081386:	6062      	str	r2, [r4, #4]
 8081388:	f44f 727a 	mov.w	r2, #1000	; 0x3e8
 808138c:	60a2      	str	r2, [r4, #8]
 808138e:	4a05      	ldr	r2, [pc, #20]	; (80813a4 <_ZN11USARTSerialC1E16HAL_USART_SerialP11Ring_BufferS2_+0x28>)
{
  _serial = serial;
 8081390:	7420      	strb	r0, [r4, #16]
#include "spark_wiring_constants.h"
#include "module_info.h"

// Constructors ////////////////////////////////////////////////////////////////

USARTSerial::USARTSerial(HAL_USART_Serial serial, Ring_Buffer *rx_buffer, Ring_Buffer *tx_buffer)
 8081392:	6022      	str	r2, [r4, #0]
{
  _serial = serial;
  // Default is blocking mode
  _blocking = true;
 8081394:	2201      	movs	r2, #1
 8081396:	7462      	strb	r2, [r4, #17]
  HAL_USART_Init(serial, rx_buffer, tx_buffer);
 8081398:	461a      	mov	r2, r3
 808139a:	f7ff fc69 	bl	8080c70 <HAL_USART_Init>
}
 808139e:	4620      	mov	r0, r4
 80813a0:	bd10      	pop	{r4, pc}
 80813a2:	bf00      	nop
 80813a4:	08082850 	.word	0x08082850

080813a8 <_ZN11USARTSerial5beginEmm>:
  begin(baud, SERIAL_8N1);
}

void USARTSerial::begin(unsigned long baud, uint32_t config)
{
  HAL_USART_BeginConfig(_serial, baud, config, 0);
 80813a8:	2300      	movs	r3, #0
 80813aa:	7c00      	ldrb	r0, [r0, #16]
 80813ac:	f7ff bca0 	b.w	8080cf0 <HAL_USART_BeginConfig>

080813b0 <_ZN11USARTSerial5beginEm>:
}
// Public Methods //////////////////////////////////////////////////////////////

void USARTSerial::begin(unsigned long baud)
{
  begin(baud, SERIAL_8N1);
 80813b0:	2200      	movs	r2, #0
 80813b2:	f7ff bff9 	b.w	80813a8 <_ZN11USARTSerial5beginEmm>

080813b6 <_ZN11USARTSerial5writeEt>:
  return 0;
}

size_t USARTSerial::write(uint16_t c)
{
  return HAL_USART_Write_NineBitData(_serial, c);
 80813b6:	7c00      	ldrb	r0, [r0, #16]
 80813b8:	f7ff bca2 	b.w	8080d00 <HAL_USART_Write_NineBitData>

080813bc <_ZN11USARTSerial9isEnabledEv>:
USARTSerial::operator bool() {
  return true;
}

bool USARTSerial::isEnabled() {
  return HAL_USART_Is_Enabled(_serial);
 80813bc:	7c00      	ldrb	r0, [r0, #16]
 80813be:	f7ff bc87 	b.w	8080cd0 <HAL_USART_Is_Enabled>
	...

080813c4 <_Z22__fetch_global_Serial1v>:
static Ring_Buffer* serial1_rx_buffer = NULL;
static Ring_Buffer* serial1_tx_buffer = NULL;
#endif

USARTSerial& __fetch_global_Serial1()
{
 80813c4:	b538      	push	{r3, r4, r5, lr}
#if ((MODULE_FUNCTION == MOD_FUNC_USER_PART) || (MODULE_FUNCTION == MOD_FUNC_MONO_FIRMWARE))
	static USARTSerial serial1(HAL_USART_SERIAL1, &serial1_rx_buffer, &serial1_tx_buffer);
 80813c6:	4d0c      	ldr	r5, [pc, #48]	; (80813f8 <_Z22__fetch_global_Serial1v+0x34>)
 80813c8:	6829      	ldr	r1, [r5, #0]
 80813ca:	f011 0401 	ands.w	r4, r1, #1
 80813ce:	d111      	bne.n	80813f4 <_Z22__fetch_global_Serial1v+0x30>
 80813d0:	4628      	mov	r0, r5
 80813d2:	f7fe fe64 	bl	808009e <__cxa_guard_acquire>
 80813d6:	b168      	cbz	r0, 80813f4 <_Z22__fetch_global_Serial1v+0x30>
 80813d8:	4a08      	ldr	r2, [pc, #32]	; (80813fc <_Z22__fetch_global_Serial1v+0x38>)
 80813da:	4621      	mov	r1, r4
 80813dc:	4b08      	ldr	r3, [pc, #32]	; (8081400 <_Z22__fetch_global_Serial1v+0x3c>)
 80813de:	4809      	ldr	r0, [pc, #36]	; (8081404 <_Z22__fetch_global_Serial1v+0x40>)
 80813e0:	f7ff ffcc 	bl	808137c <_ZN11USARTSerialC1E16HAL_USART_SerialP11Ring_BufferS2_>
 80813e4:	4628      	mov	r0, r5
 80813e6:	f7fe fe5f 	bl	80800a8 <__cxa_guard_release>
 80813ea:	4a07      	ldr	r2, [pc, #28]	; (8081408 <_Z22__fetch_global_Serial1v+0x44>)
 80813ec:	4907      	ldr	r1, [pc, #28]	; (808140c <_Z22__fetch_global_Serial1v+0x48>)
 80813ee:	4805      	ldr	r0, [pc, #20]	; (8081404 <_Z22__fetch_global_Serial1v+0x40>)
 80813f0:	f000 fa24 	bl	808183c <__aeabi_atexit>
    serial1_tx_buffer = new Ring_Buffer();
  }
  static USARTSerial serial1(HAL_USART_SERIAL1, serial1_rx_buffer, serial1_tx_buffer);
#endif
	return serial1;
}
 80813f4:	4803      	ldr	r0, [pc, #12]	; (8081404 <_Z22__fetch_global_Serial1v+0x40>)
 80813f6:	bd38      	pop	{r3, r4, r5, pc}
 80813f8:	200008a8 	.word	0x200008a8
 80813fc:	200008ac 	.word	0x200008ac
 8081400:	20000824 	.word	0x20000824
 8081404:	20000810 	.word	0x20000810
 8081408:	20000470 	.word	0x20000470
 808140c:	080800af 	.word	0x080800af

08081410 <_ZN9USBSerial14blockOnOverrunEb>:
  HAL_USB_USART_Flush_Data(_serial);
}

void USBSerial::blockOnOverrun(bool block)
{
  _blocking = block;
 8081410:	7441      	strb	r1, [r0, #17]
 8081412:	4770      	bx	lr

08081414 <_ZN9USBSerialD1Ev>:
#include "spark_wiring_platform.h"
#include "usb_hal.h"
#include "system_task.h"
#include "spark_wiring_startup.h"

class USBSerial : public Stream
 8081414:	4770      	bx	lr

08081416 <_ZN9USBSerial4readEv>:


// Read data from buffer
int USBSerial::read()
{
	return HAL_USB_USART_Receive_Data(_serial, false);
 8081416:	2100      	movs	r1, #0
 8081418:	7c00      	ldrb	r0, [r0, #16]
 808141a:	f7ff bc99 	b.w	8080d50 <HAL_USB_USART_Receive_Data>

0808141e <_ZN9USBSerial4peekEv>:
  _blocking = block;
}

int USBSerial::peek()
{
	return HAL_USB_USART_Receive_Data(_serial, true);
 808141e:	2101      	movs	r1, #1
 8081420:	7c00      	ldrb	r0, [r0, #16]
 8081422:	f7ff bc95 	b.w	8080d50 <HAL_USB_USART_Receive_Data>

08081426 <_ZN9USBSerial17availableForWriteEv>:
	return HAL_USB_USART_Receive_Data(_serial, false);
}

int USBSerial::availableForWrite()
{
  return HAL_USB_USART_Available_Data_For_Write(_serial);
 8081426:	7c00      	ldrb	r0, [r0, #16]
 8081428:	f7ff bc8a 	b.w	8080d40 <HAL_USB_USART_Available_Data_For_Write>

0808142c <_ZN9USBSerial9availableEv>:
}

int USBSerial::available()
{
	return HAL_USB_USART_Available_Data(_serial);
 808142c:	7c00      	ldrb	r0, [r0, #16]
 808142e:	f7ff bc7f 	b.w	8080d30 <HAL_USB_USART_Available_Data>

08081432 <_ZN9USBSerial5writeEh>:
}

size_t USBSerial::write(uint8_t byte)
{
 8081432:	b538      	push	{r3, r4, r5, lr}
 8081434:	4604      	mov	r4, r0
  if (HAL_USB_USART_Available_Data_For_Write(_serial) > 0 || _blocking) {
 8081436:	7c00      	ldrb	r0, [r0, #16]
{
	return HAL_USB_USART_Available_Data(_serial);
}

size_t USBSerial::write(uint8_t byte)
{
 8081438:	460d      	mov	r5, r1
  if (HAL_USB_USART_Available_Data_For_Write(_serial) > 0 || _blocking) {
 808143a:	f7ff fc81 	bl	8080d40 <HAL_USB_USART_Available_Data_For_Write>
 808143e:	2800      	cmp	r0, #0
 8081440:	dc01      	bgt.n	8081446 <_ZN9USBSerial5writeEh+0x14>
 8081442:	7c60      	ldrb	r0, [r4, #17]
 8081444:	b120      	cbz	r0, 8081450 <_ZN9USBSerial5writeEh+0x1e>
    HAL_USB_USART_Send_Data(_serial, byte);
 8081446:	4629      	mov	r1, r5
 8081448:	7c20      	ldrb	r0, [r4, #16]
 808144a:	f7ff fc89 	bl	8080d60 <HAL_USB_USART_Send_Data>
    return 1;
 808144e:	2001      	movs	r0, #1
  }
  return 0;
}
 8081450:	bd38      	pop	{r3, r4, r5, pc}

08081452 <_ZN9USBSerial5flushEv>:

void USBSerial::flush()
{
  HAL_USB_USART_Flush_Data(_serial);
 8081452:	7c00      	ldrb	r0, [r0, #16]
 8081454:	f7ff bc8c 	b.w	8080d70 <HAL_USB_USART_Flush_Data>

08081458 <_ZN9USBSerialD0Ev>:
 8081458:	b510      	push	{r4, lr}
 808145a:	4604      	mov	r4, r0
 808145c:	f7fe fe1d 	bl	808009a <_ZdlPv>
 8081460:	4620      	mov	r0, r4
 8081462:	bd10      	pop	{r4, pc}

08081464 <_ZN9USBSerialC1E20HAL_USB_USART_SerialRK20HAL_USB_USART_Config>:

  HAL_USB_USART_Config conf = acquireSerialBuffer();
  HAL_USB_USART_Init(_serial, &conf);
}

USBSerial::USBSerial(HAL_USB_USART_Serial serial, const HAL_USB_USART_Config& conf)
 8081464:	b510      	push	{r4, lr}
 8081466:	4604      	mov	r4, r0
 8081468:	2300      	movs	r3, #0
 808146a:	6063      	str	r3, [r4, #4]
 808146c:	f44f 737a 	mov.w	r3, #1000	; 0x3e8
 8081470:	60a3      	str	r3, [r4, #8]
 8081472:	4b05      	ldr	r3, [pc, #20]	; (8081488 <_ZN9USBSerialC1E20HAL_USB_USART_SerialRK20HAL_USB_USART_Config+0x24>)
 8081474:	4608      	mov	r0, r1
 8081476:	6023      	str	r3, [r4, #0]
{
  _serial = serial;
  _blocking = true;
 8081478:	2301      	movs	r3, #1
  HAL_USB_USART_Init(_serial, &conf);
}

USBSerial::USBSerial(HAL_USB_USART_Serial serial, const HAL_USB_USART_Config& conf)
{
  _serial = serial;
 808147a:	7421      	strb	r1, [r4, #16]
  _blocking = true;
 808147c:	7463      	strb	r3, [r4, #17]

  HAL_USB_USART_Init(_serial, &conf);
 808147e:	4611      	mov	r1, r2
 8081480:	f7ff fc46 	bl	8080d10 <HAL_USB_USART_Init>
}
 8081484:	4620      	mov	r0, r4
 8081486:	bd10      	pop	{r4, pc}
 8081488:	08082880 	.word	0x08082880

0808148c <_ZN9USBSerial5beginEl>:
// Public methods
//

void USBSerial::begin(long speed)
{
    HAL_USB_USART_Begin(_serial, speed, NULL);
 808148c:	2200      	movs	r2, #0
 808148e:	7c00      	ldrb	r0, [r0, #16]
 8081490:	f7ff bc46 	b.w	8080d20 <HAL_USB_USART_Begin>

08081494 <_Z19acquireSerialBufferv>:

// Preinstantiate Objects //////////////////////////////////////////////////////
#ifdef SPARK_USB_SERIAL

HAL_USB_USART_Config __attribute__((weak)) acquireSerialBuffer()
{
 8081494:	b510      	push	{r4, lr}
 8081496:	4604      	mov	r4, r0
  HAL_USB_USART_Config conf = {0};
 8081498:	2214      	movs	r2, #20
 808149a:	2100      	movs	r1, #0
 808149c:	f000 ffe9 	bl	8082472 <memset>

#if defined(USB_SERIAL_USERSPACE_BUFFERS) && ((MODULE_FUNCTION == MOD_FUNC_USER_PART) || (MODULE_FUNCTION == MOD_FUNC_MONO_FIRMWARE))
  static uint8_t serial_rx_buffer[USB_RX_BUFFER_SIZE];
  static uint8_t serial_tx_buffer[USB_TX_BUFFER_SIZE];

  conf.rx_buffer = serial_rx_buffer;
 80814a0:	4b05      	ldr	r3, [pc, #20]	; (80814b8 <_Z19acquireSerialBufferv+0x24>)
  conf.rx_buffer_size = USB_RX_BUFFER_SIZE;
  conf.tx_buffer_size = USB_TX_BUFFER_SIZE;
#endif

  return conf;
}
 80814a2:	4620      	mov	r0, r4

#if defined(USB_SERIAL_USERSPACE_BUFFERS) && ((MODULE_FUNCTION == MOD_FUNC_USER_PART) || (MODULE_FUNCTION == MOD_FUNC_MONO_FIRMWARE))
  static uint8_t serial_rx_buffer[USB_RX_BUFFER_SIZE];
  static uint8_t serial_tx_buffer[USB_TX_BUFFER_SIZE];

  conf.rx_buffer = serial_rx_buffer;
 80814a4:	6063      	str	r3, [r4, #4]
  conf.tx_buffer = serial_tx_buffer;
 80814a6:	4b05      	ldr	r3, [pc, #20]	; (80814bc <_Z19acquireSerialBufferv+0x28>)
 80814a8:	60e3      	str	r3, [r4, #12]
  conf.rx_buffer_size = USB_RX_BUFFER_SIZE;
 80814aa:	f240 1301 	movw	r3, #257	; 0x101
 80814ae:	8123      	strh	r3, [r4, #8]
  conf.tx_buffer_size = USB_TX_BUFFER_SIZE;
 80814b0:	2381      	movs	r3, #129	; 0x81
 80814b2:	8223      	strh	r3, [r4, #16]
#endif

  return conf;
}
 80814b4:	bd10      	pop	{r4, pc}
 80814b6:	bf00      	nop
 80814b8:	200009b5 	.word	0x200009b5
 80814bc:	20000934 	.word	0x20000934

080814c0 <_Z16_fetch_usbserialv>:

USBSerial& _fetch_usbserial()
{
 80814c0:	b530      	push	{r4, r5, lr}
  HAL_USB_USART_Config conf = acquireSerialBuffer();
	static USBSerial _usbserial(HAL_USB_USART_SERIAL, conf);
 80814c2:	4d0e      	ldr	r5, [pc, #56]	; (80814fc <_Z16_fetch_usbserialv+0x3c>)

  return conf;
}

USBSerial& _fetch_usbserial()
{
 80814c4:	b087      	sub	sp, #28
  HAL_USB_USART_Config conf = acquireSerialBuffer();
 80814c6:	a801      	add	r0, sp, #4
 80814c8:	f7ff ffe4 	bl	8081494 <_Z19acquireSerialBufferv>
	static USBSerial _usbserial(HAL_USB_USART_SERIAL, conf);
 80814cc:	6829      	ldr	r1, [r5, #0]
 80814ce:	f011 0401 	ands.w	r4, r1, #1
 80814d2:	d110      	bne.n	80814f6 <_Z16_fetch_usbserialv+0x36>
 80814d4:	4628      	mov	r0, r5
 80814d6:	f7fe fde2 	bl	808009e <__cxa_guard_acquire>
 80814da:	b160      	cbz	r0, 80814f6 <_Z16_fetch_usbserialv+0x36>
 80814dc:	aa01      	add	r2, sp, #4
 80814de:	4621      	mov	r1, r4
 80814e0:	4807      	ldr	r0, [pc, #28]	; (8081500 <_Z16_fetch_usbserialv+0x40>)
 80814e2:	f7ff ffbf 	bl	8081464 <_ZN9USBSerialC1E20HAL_USB_USART_SerialRK20HAL_USB_USART_Config>
 80814e6:	4628      	mov	r0, r5
 80814e8:	f7fe fdde 	bl	80800a8 <__cxa_guard_release>
 80814ec:	4a05      	ldr	r2, [pc, #20]	; (8081504 <_Z16_fetch_usbserialv+0x44>)
 80814ee:	4906      	ldr	r1, [pc, #24]	; (8081508 <_Z16_fetch_usbserialv+0x48>)
 80814f0:	4803      	ldr	r0, [pc, #12]	; (8081500 <_Z16_fetch_usbserialv+0x40>)
 80814f2:	f000 f9a3 	bl	808183c <__aeabi_atexit>
	return _usbserial;
}
 80814f6:	4802      	ldr	r0, [pc, #8]	; (8081500 <_Z16_fetch_usbserialv+0x40>)
 80814f8:	b007      	add	sp, #28
 80814fa:	bd30      	pop	{r4, r5, pc}
 80814fc:	20000930 	.word	0x20000930
 8081500:	20000ab8 	.word	0x20000ab8
 8081504:	20000470 	.word	0x20000470
 8081508:	08081415 	.word	0x08081415

0808150c <_Z23acquireUSBSerial1Bufferv>:

#if Wiring_USBSerial1

HAL_USB_USART_Config __attribute__((weak)) acquireUSBSerial1Buffer()
{
 808150c:	b510      	push	{r4, lr}
 808150e:	4604      	mov	r4, r0
  HAL_USB_USART_Config conf = {0};
 8081510:	2214      	movs	r2, #20
 8081512:	2100      	movs	r1, #0
 8081514:	f000 ffad 	bl	8082472 <memset>

#if defined(USB_SERIAL_USERSPACE_BUFFERS) && ((MODULE_FUNCTION == MOD_FUNC_USER_PART) || (MODULE_FUNCTION == MOD_FUNC_MONO_FIRMWARE))
  static uint8_t usbserial1_rx_buffer[USB_RX_BUFFER_SIZE];
  static uint8_t usbserial1_tx_buffer[USB_TX_BUFFER_SIZE];

  conf.rx_buffer = usbserial1_rx_buffer;
 8081518:	4b05      	ldr	r3, [pc, #20]	; (8081530 <_Z23acquireUSBSerial1Bufferv+0x24>)
  conf.rx_buffer_size = USB_RX_BUFFER_SIZE;
  conf.tx_buffer_size = USB_TX_BUFFER_SIZE;
#endif

  return conf;
}
 808151a:	4620      	mov	r0, r4

#if defined(USB_SERIAL_USERSPACE_BUFFERS) && ((MODULE_FUNCTION == MOD_FUNC_USER_PART) || (MODULE_FUNCTION == MOD_FUNC_MONO_FIRMWARE))
  static uint8_t usbserial1_rx_buffer[USB_RX_BUFFER_SIZE];
  static uint8_t usbserial1_tx_buffer[USB_TX_BUFFER_SIZE];

  conf.rx_buffer = usbserial1_rx_buffer;
 808151c:	6063      	str	r3, [r4, #4]
  conf.tx_buffer = usbserial1_tx_buffer;
 808151e:	4b05      	ldr	r3, [pc, #20]	; (8081534 <_Z23acquireUSBSerial1Bufferv+0x28>)
 8081520:	60e3      	str	r3, [r4, #12]
  conf.rx_buffer_size = USB_RX_BUFFER_SIZE;
 8081522:	f240 1301 	movw	r3, #257	; 0x101
 8081526:	8123      	strh	r3, [r4, #8]
  conf.tx_buffer_size = USB_TX_BUFFER_SIZE;
 8081528:	2381      	movs	r3, #129	; 0x81
 808152a:	8223      	strh	r3, [r4, #16]
#endif

  return conf;
}
 808152c:	bd10      	pop	{r4, pc}
 808152e:	bf00      	nop
 8081530:	20000b68 	.word	0x20000b68
 8081534:	20000ad0 	.word	0x20000ad0

08081538 <_Z17_fetch_usbserial1v>:

USBSerial& _fetch_usbserial1()
{
 8081538:	b510      	push	{r4, lr}
  HAL_USB_USART_Config conf = acquireUSBSerial1Buffer();
  static USBSerial _usbserial1(HAL_USB_USART_SERIAL1, conf);
 808153a:	4c0e      	ldr	r4, [pc, #56]	; (8081574 <_Z17_fetch_usbserial1v+0x3c>)

  return conf;
}

USBSerial& _fetch_usbserial1()
{
 808153c:	b086      	sub	sp, #24
  HAL_USB_USART_Config conf = acquireUSBSerial1Buffer();
 808153e:	a801      	add	r0, sp, #4
 8081540:	f7ff ffe4 	bl	808150c <_Z23acquireUSBSerial1Bufferv>
  static USBSerial _usbserial1(HAL_USB_USART_SERIAL1, conf);
 8081544:	6823      	ldr	r3, [r4, #0]
 8081546:	07db      	lsls	r3, r3, #31
 8081548:	d410      	bmi.n	808156c <_Z17_fetch_usbserial1v+0x34>
 808154a:	4620      	mov	r0, r4
 808154c:	f7fe fda7 	bl	808009e <__cxa_guard_acquire>
 8081550:	b160      	cbz	r0, 808156c <_Z17_fetch_usbserial1v+0x34>
 8081552:	aa01      	add	r2, sp, #4
 8081554:	2101      	movs	r1, #1
 8081556:	4808      	ldr	r0, [pc, #32]	; (8081578 <_Z17_fetch_usbserial1v+0x40>)
 8081558:	f7ff ff84 	bl	8081464 <_ZN9USBSerialC1E20HAL_USB_USART_SerialRK20HAL_USB_USART_Config>
 808155c:	4620      	mov	r0, r4
 808155e:	f7fe fda3 	bl	80800a8 <__cxa_guard_release>
 8081562:	4a06      	ldr	r2, [pc, #24]	; (808157c <_Z17_fetch_usbserial1v+0x44>)
 8081564:	4906      	ldr	r1, [pc, #24]	; (8081580 <_Z17_fetch_usbserial1v+0x48>)
 8081566:	4804      	ldr	r0, [pc, #16]	; (8081578 <_Z17_fetch_usbserial1v+0x40>)
 8081568:	f000 f968 	bl	808183c <__aeabi_atexit>
  return _usbserial1;
}
 808156c:	4802      	ldr	r0, [pc, #8]	; (8081578 <_Z17_fetch_usbserial1v+0x40>)
 808156e:	b006      	add	sp, #24
 8081570:	bd10      	pop	{r4, pc}
 8081572:	bf00      	nop
 8081574:	20000acc 	.word	0x20000acc
 8081578:	20000b54 	.word	0x20000b54
 808157c:	20000470 	.word	0x20000470
 8081580:	08081415 	.word	0x08081415

08081584 <serialEventRun>:

/**
 * Provides background processing of serial data.
 */
void serialEventRun()
{
 8081584:	b508      	push	{r3, lr}
    if (serialEvent && Serial.available()>0)
 8081586:	4b18      	ldr	r3, [pc, #96]	; (80815e8 <serialEventRun+0x64>)
 8081588:	b133      	cbz	r3, 8081598 <serialEventRun+0x14>
 808158a:	f7ff ff99 	bl	80814c0 <_Z16_fetch_usbserialv>
 808158e:	6803      	ldr	r3, [r0, #0]
 8081590:	691b      	ldr	r3, [r3, #16]
 8081592:	4798      	blx	r3
 8081594:	2800      	cmp	r0, #0
 8081596:	dc1e      	bgt.n	80815d6 <serialEventRun+0x52>
        serialEvent();

    if (serialEvent1 && Serial1.available()>0)
 8081598:	4b14      	ldr	r3, [pc, #80]	; (80815ec <serialEventRun+0x68>)
 808159a:	b133      	cbz	r3, 80815aa <serialEventRun+0x26>
 808159c:	f7ff ff12 	bl	80813c4 <_Z22__fetch_global_Serial1v>
 80815a0:	6803      	ldr	r3, [r0, #0]
 80815a2:	691b      	ldr	r3, [r3, #16]
 80815a4:	4798      	blx	r3
 80815a6:	2800      	cmp	r0, #0
 80815a8:	dc18      	bgt.n	80815dc <serialEventRun+0x58>
        serialEvent1();

#if Wiring_Serial2
    if (serialEventRun2) serialEventRun2();
 80815aa:	4b11      	ldr	r3, [pc, #68]	; (80815f0 <serialEventRun+0x6c>)
 80815ac:	b10b      	cbz	r3, 80815b2 <serialEventRun+0x2e>
 80815ae:	f3af 8000 	nop.w
#if Wiring_Serial3
    if (serialEventRun3) serialEventRun3();
#endif

#if Wiring_Serial4
    if (serialEventRun4) serialEventRun4();
 80815b2:	4b10      	ldr	r3, [pc, #64]	; (80815f4 <serialEventRun+0x70>)
 80815b4:	b10b      	cbz	r3, 80815ba <serialEventRun+0x36>
 80815b6:	f7fe fda7 	bl	8080108 <_Z15serialEventRun4v>
#endif

#if Wiring_Serial5
    if (serialEventRun5) serialEventRun5();
 80815ba:	4b0f      	ldr	r3, [pc, #60]	; (80815f8 <serialEventRun+0x74>)
 80815bc:	b10b      	cbz	r3, 80815c2 <serialEventRun+0x3e>
 80815be:	f7fe fddd 	bl	808017c <_Z15serialEventRun5v>
#endif

#if Wiring_USBSerial1
    if (usbSerialEvent1 && USBSerial1.available()>0)
 80815c2:	4b0e      	ldr	r3, [pc, #56]	; (80815fc <serialEventRun+0x78>)
 80815c4:	b17b      	cbz	r3, 80815e6 <serialEventRun+0x62>
 80815c6:	f7ff ffb7 	bl	8081538 <_Z17_fetch_usbserial1v>
 80815ca:	6803      	ldr	r3, [r0, #0]
 80815cc:	691b      	ldr	r3, [r3, #16]
 80815ce:	4798      	blx	r3
 80815d0:	2800      	cmp	r0, #0
 80815d2:	dc06      	bgt.n	80815e2 <serialEventRun+0x5e>
 80815d4:	bd08      	pop	{r3, pc}
 * Provides background processing of serial data.
 */
void serialEventRun()
{
    if (serialEvent && Serial.available()>0)
        serialEvent();
 80815d6:	f3af 8000 	nop.w
 80815da:	e7dd      	b.n	8081598 <serialEventRun+0x14>

    if (serialEvent1 && Serial1.available()>0)
        serialEvent1();
 80815dc:	f3af 8000 	nop.w
 80815e0:	e7e3      	b.n	80815aa <serialEventRun+0x26>
    if (serialEventRun5) serialEventRun5();
#endif

#if Wiring_USBSerial1
    if (usbSerialEvent1 && USBSerial1.available()>0)
        usbSerialEvent1();
 80815e2:	f3af 8000 	nop.w
 80815e6:	bd08      	pop	{r3, pc}
	...
 80815f4:	08080109 	.word	0x08080109
 80815f8:	0808017d 	.word	0x0808017d
 80815fc:	00000000 	.word	0x00000000

08081600 <_post_loop>:
#if Wiring_Serial5
void serialEvent5() __attribute__((weak));
#endif

void _post_loop()
{
 8081600:	b508      	push	{r3, lr}
	serialEventRun();
 8081602:	f7ff ffbf 	bl	8081584 <serialEventRun>
		return !timeout_fn;
	}

	static inline system_tick_t current_time()
	{
		return HAL_Timer_Get_Milli_Seconds();
 8081606:	f7ff fac3 	bl	8080b90 <HAL_Timer_Get_Milli_Seconds>
	/**
	 * Lifesign that the application is still working normally.
	 */
	static void checkin()
	{
		last_checkin = current_time();
 808160a:	4b01      	ldr	r3, [pc, #4]	; (8081610 <_post_loop+0x10>)
 808160c:	6018      	str	r0, [r3, #0]
 808160e:	bd08      	pop	{r3, pc}
 8081610:	20000c74 	.word	0x20000c74

08081614 <_Z33system_initialize_user_backup_ramv>:
 * the dynamically linked application module.
 */
void system_initialize_user_backup_ram()
{
    size_t len = &link_global_retained_end-&link_global_retained_start;
    memcpy(&link_global_retained_start, &link_global_retained_initial_values, len);
 8081614:	4802      	ldr	r0, [pc, #8]	; (8081620 <_Z33system_initialize_user_backup_ramv+0xc>)
 8081616:	4a03      	ldr	r2, [pc, #12]	; (8081624 <_Z33system_initialize_user_backup_ramv+0x10>)
 8081618:	4903      	ldr	r1, [pc, #12]	; (8081628 <_Z33system_initialize_user_backup_ramv+0x14>)
 808161a:	1a12      	subs	r2, r2, r0
 808161c:	f000 bf1e 	b.w	808245c <memcpy>
 8081620:	40024000 	.word	0x40024000
 8081624:	40024004 	.word	0x40024004
 8081628:	08082a40 	.word	0x08082a40

0808162c <_Z27ctrl_request_custom_handlerP12ctrl_request>:
bool __backup_ram_was_valid() { return false; }

#endif

// Default handler for CTRL_REQUEST_APP_CUSTOM requests
void __attribute((weak)) ctrl_request_custom_handler(ctrl_request* req) {
 808162c:	b507      	push	{r0, r1, r2, lr}
    system_ctrl_set_result(req, SYSTEM_ERROR_NOT_SUPPORTED, nullptr, nullptr, nullptr);
 808162e:	2300      	movs	r3, #0
 8081630:	9300      	str	r3, [sp, #0]
 8081632:	461a      	mov	r2, r3
 8081634:	f06f 0177 	mvn.w	r1, #119	; 0x77
 8081638:	f7ff fbc4 	bl	8080dc4 <system_ctrl_set_result>
}
 808163c:	b003      	add	sp, #12
 808163e:	f85d fb04 	ldr.w	pc, [sp], #4
	...

08081644 <_ZL20ctrl_request_handlerP12ctrl_request>:
// Callback invoked to process a logging configuration request
void(*log_process_ctrl_request_callback)(ctrl_request* req) = nullptr;
#endif

// Application handler for control requests
static void ctrl_request_handler(ctrl_request* req) {
 8081644:	b507      	push	{r0, r1, r2, lr}
    switch (req->type) {
 8081646:	8843      	ldrh	r3, [r0, #2]
 8081648:	2b0a      	cmp	r3, #10
 808164a:	d008      	beq.n	808165e <_ZL20ctrl_request_handlerP12ctrl_request+0x1a>
 808164c:	2b50      	cmp	r3, #80	; 0x50
 808164e:	d109      	bne.n	8081664 <_ZL20ctrl_request_handlerP12ctrl_request+0x20>
#if Wiring_LogConfig
    case CTRL_REQUEST_LOG_CONFIG: {
        if (log_process_ctrl_request_callback) {
 8081650:	4b09      	ldr	r3, [pc, #36]	; (8081678 <_ZL20ctrl_request_handlerP12ctrl_request+0x34>)
 8081652:	681b      	ldr	r3, [r3, #0]
 8081654:	b13b      	cbz	r3, 8081666 <_ZL20ctrl_request_handlerP12ctrl_request+0x22>
    }
    default:
        system_ctrl_set_result(req, SYSTEM_ERROR_NOT_SUPPORTED, nullptr, nullptr, nullptr);
        break;
    }
}
 8081656:	b003      	add	sp, #12
 8081658:	f85d eb04 	ldr.w	lr, [sp], #4
static void ctrl_request_handler(ctrl_request* req) {
    switch (req->type) {
#if Wiring_LogConfig
    case CTRL_REQUEST_LOG_CONFIG: {
        if (log_process_ctrl_request_callback) {
            log_process_ctrl_request_callback(req);
 808165c:	4718      	bx	r3
        }
        break;
    }
#endif
    case CTRL_REQUEST_APP_CUSTOM: {
        ctrl_request_custom_handler(req);
 808165e:	f7ff ffe5 	bl	808162c <_Z27ctrl_request_custom_handlerP12ctrl_request>
        break;
 8081662:	e006      	b.n	8081672 <_ZL20ctrl_request_handlerP12ctrl_request+0x2e>
    }
    default:
        system_ctrl_set_result(req, SYSTEM_ERROR_NOT_SUPPORTED, nullptr, nullptr, nullptr);
 8081664:	2300      	movs	r3, #0
 8081666:	9300      	str	r3, [sp, #0]
 8081668:	461a      	mov	r2, r3
 808166a:	f06f 0177 	mvn.w	r1, #119	; 0x77
 808166e:	f7ff fba9 	bl	8080dc4 <system_ctrl_set_result>
        break;
    }
}
 8081672:	b003      	add	sp, #12
 8081674:	f85d fb04 	ldr.w	pc, [sp], #4
 8081678:	20000c6c 	.word	0x20000c6c

0808167c <module_user_init_hook>:

void module_user_init_hook()
{
 808167c:	b538      	push	{r3, r4, r5, lr}
#if PLATFORM_BACKUP_RAM
    backup_ram_was_valid_ =  __backup_sram_signature==signature;
 808167e:	4c10      	ldr	r4, [pc, #64]	; (80816c0 <module_user_init_hook+0x44>)
 8081680:	4d10      	ldr	r5, [pc, #64]	; (80816c4 <module_user_init_hook+0x48>)
 8081682:	6823      	ldr	r3, [r4, #0]
 8081684:	42ab      	cmp	r3, r5
 8081686:	4b10      	ldr	r3, [pc, #64]	; (80816c8 <module_user_init_hook+0x4c>)
 8081688:	bf0c      	ite	eq
 808168a:	2201      	moveq	r2, #1
 808168c:	2200      	movne	r2, #0
 808168e:	701a      	strb	r2, [r3, #0]
    if (!backup_ram_was_valid_) {
 8081690:	d002      	beq.n	8081698 <module_user_init_hook+0x1c>
        system_initialize_user_backup_ram();
 8081692:	f7ff ffbf 	bl	8081614 <_Z33system_initialize_user_backup_ramv>
        __backup_sram_signature = signature;
 8081696:	6025      	str	r5, [r4, #0]
#endif

    // todo - add a RNG define for that capability
#if defined(STM32F2XX)
    // Initialize the default stdlib PRNG using hardware RNG as a seed
    srand(HAL_RNG_GetRandomNumber());
 8081698:	f7ff fa72 	bl	8080b80 <HAL_RNG_GetRandomNumber>
 808169c:	f000 fef2 	bl	8082484 <srand>

    // If the user defines random_seed_from_cloud, call it with a seed value
    // generated by a hardware RNG as well.
    if (random_seed_from_cloud) {
 80816a0:	4b0a      	ldr	r3, [pc, #40]	; (80816cc <module_user_init_hook+0x50>)
 80816a2:	b11b      	cbz	r3, 80816ac <module_user_init_hook+0x30>
        uint32_t seed = HAL_RNG_GetRandomNumber();
 80816a4:	f7ff fa6c 	bl	8080b80 <HAL_RNG_GetRandomNumber>
        random_seed_from_cloud(seed);
 80816a8:	f3af 8000 	nop.w
    }
#endif
    // Register the random_seed_from_cloud handler
    spark_set_random_seed_from_cloud_handler(&random_seed_from_cloud, nullptr);
 80816ac:	2100      	movs	r1, #0
 80816ae:	4807      	ldr	r0, [pc, #28]	; (80816cc <module_user_init_hook+0x50>)
 80816b0:	f7ff fb92 	bl	8080dd8 <spark_set_random_seed_from_cloud_handler>

    // Register application handler for the control requests
    system_ctrl_set_app_request_handler(ctrl_request_handler, nullptr);
}
 80816b4:	e8bd 4038 	ldmia.w	sp!, {r3, r4, r5, lr}
#endif
    // Register the random_seed_from_cloud handler
    spark_set_random_seed_from_cloud_handler(&random_seed_from_cloud, nullptr);

    // Register application handler for the control requests
    system_ctrl_set_app_request_handler(ctrl_request_handler, nullptr);
 80816b8:	2100      	movs	r1, #0
 80816ba:	4805      	ldr	r0, [pc, #20]	; (80816d0 <module_user_init_hook+0x54>)
 80816bc:	f7ff bb78 	b.w	8080db0 <system_ctrl_set_app_request_handler>
 80816c0:	40024000 	.word	0x40024000
 80816c4:	9a271c1e 	.word	0x9a271c1e
 80816c8:	20000c70 	.word	0x20000c70
 80816cc:	00000000 	.word	0x00000000
 80816d0:	08081645 	.word	0x08081645

080816d4 <pinAvailable>:

/*
 * @brief Perform safety check on desired pin to see if it's already
 * being used.  Return 0 if used, otherwise return 1 if available.
 */
bool pinAvailable(uint16_t pin) {
 80816d4:	b510      	push	{r4, lr}
 80816d6:	4604      	mov	r4, r0

  // SPI safety check
#ifndef SPARK_WIRING_NO_SPI
  if(SPI.isEnabled() == true && (pin == SCK || pin == MOSI || pin == MISO))
 80816d8:	480f      	ldr	r0, [pc, #60]	; (8081718 <pinAvailable+0x44>)
 80816da:	f7ff fdfd 	bl	80812d8 <_ZN8SPIClass9isEnabledEv>
 80816de:	b128      	cbz	r0, 80816ec <pinAvailable+0x18>
 80816e0:	f1a4 030d 	sub.w	r3, r4, #13
 80816e4:	2b02      	cmp	r3, #2
 80816e6:	d801      	bhi.n	80816ec <pinAvailable+0x18>
  {
    return 0; // 'pin' is used
 80816e8:	2000      	movs	r0, #0
 80816ea:	bd10      	pop	{r4, pc}
  }
#endif
  // I2C safety check
#ifndef SPARK_WIRING_NO_I2C
  if(Wire.isEnabled() == true && (pin == SCL || pin == SDA))
 80816ec:	f000 f840 	bl	8081770 <_Z19__fetch_global_Wirev>
 80816f0:	f7ff fc06 	bl	8080f00 <_ZN7TwoWire9isEnabledEv>
 80816f4:	b108      	cbz	r0, 80816fa <pinAvailable+0x26>
 80816f6:	2c01      	cmp	r4, #1
 80816f8:	d9f6      	bls.n	80816e8 <pinAvailable+0x14>
    return 0; // 'pin' is used
  }
#endif
#ifndef SPARK_WIRING_NO_USART_SERIAL
  // Serial1 safety check
  if(Serial1.isEnabled() == true && (pin == RX || pin == TX))
 80816fa:	f7ff fe63 	bl	80813c4 <_Z22__fetch_global_Serial1v>
 80816fe:	f7ff fe5d 	bl	80813bc <_ZN11USARTSerial9isEnabledEv>
 8081702:	b118      	cbz	r0, 808170c <pinAvailable+0x38>
 8081704:	f1a4 0312 	sub.w	r3, r4, #18
 8081708:	2b01      	cmp	r3, #1
 808170a:	d9ed      	bls.n	80816e8 <pinAvailable+0x14>
  {
    return 0; // 'pin' is used
  }
#endif

  if (pin >= TOTAL_PINS)
 808170c:	2c2e      	cmp	r4, #46	; 0x2e
 808170e:	bf8c      	ite	hi
 8081710:	2000      	movhi	r0, #0
 8081712:	2001      	movls	r0, #1
    return 0;
  else
    return 1; // 'pin' is available
}
 8081714:	bd10      	pop	{r4, pc}
 8081716:	bf00      	nop
 8081718:	20000c98 	.word	0x20000c98

0808171c <pinMode>:
 * or INPUT_PULLDOWN
 */
void pinMode(uint16_t pin, PinMode setMode)
{

  if(pin >= TOTAL_PINS || setMode == PIN_MODE_NONE )
 808171c:	282e      	cmp	r0, #46	; 0x2e
/*
 * @brief Set the mode of the pin to OUTPUT, INPUT, INPUT_PULLUP,
 * or INPUT_PULLDOWN
 */
void pinMode(uint16_t pin, PinMode setMode)
{
 808171e:	b538      	push	{r3, r4, r5, lr}
 8081720:	4604      	mov	r4, r0
 8081722:	460d      	mov	r5, r1

  if(pin >= TOTAL_PINS || setMode == PIN_MODE_NONE )
 8081724:	d80a      	bhi.n	808173c <pinMode+0x20>
 8081726:	29ff      	cmp	r1, #255	; 0xff
 8081728:	d008      	beq.n	808173c <pinMode+0x20>
  {
    return;
  }

  // Safety check
  if( !pinAvailable(pin) ) {
 808172a:	f7ff ffd3 	bl	80816d4 <pinAvailable>
 808172e:	b128      	cbz	r0, 808173c <pinMode+0x20>
    return;
  }

  HAL_Pin_Mode(pin, setMode);
 8081730:	4629      	mov	r1, r5
 8081732:	4620      	mov	r0, r4
}
 8081734:	e8bd 4038 	ldmia.w	sp!, {r3, r4, r5, lr}
  // Safety check
  if( !pinAvailable(pin) ) {
    return;
  }

  HAL_Pin_Mode(pin, setMode);
 8081738:	f7ff ba3a 	b.w	8080bb0 <HAL_Pin_Mode>
 808173c:	bd38      	pop	{r3, r4, r5, pc}

0808173e <digitalWrite>:

/*
 * @brief Sets a GPIO pin to HIGH or LOW.
 */
void digitalWrite(pin_t pin, uint8_t value)
{
 808173e:	b538      	push	{r3, r4, r5, lr}
 8081740:	4604      	mov	r4, r0
 8081742:	460d      	mov	r5, r1
    PinMode mode = HAL_Get_Pin_Mode(pin);
 8081744:	f7ff fa3c 	bl	8080bc0 <HAL_Get_Pin_Mode>
    if (mode==PIN_MODE_NONE || is_input_mode(mode))
 8081748:	28ff      	cmp	r0, #255	; 0xff
 808174a:	d010      	beq.n	808176e <digitalWrite+0x30>
}

inline bool is_input_mode(PinMode mode) {
    return  mode == INPUT ||
            mode == INPUT_PULLUP ||
            mode == INPUT_PULLDOWN ||
 808174c:	2806      	cmp	r0, #6
 808174e:	d804      	bhi.n	808175a <digitalWrite+0x1c>
 8081750:	234d      	movs	r3, #77	; 0x4d
 8081752:	fa23 f000 	lsr.w	r0, r3, r0
 8081756:	07c3      	lsls	r3, r0, #31
 8081758:	d409      	bmi.n	808176e <digitalWrite+0x30>
{
    PinMode mode = HAL_Get_Pin_Mode(pin);
    if (mode==PIN_MODE_NONE || is_input_mode(mode))
        return;
  // Safety check
  if( !pinAvailable(pin) ) {
 808175a:	4620      	mov	r0, r4
 808175c:	f7ff ffba 	bl	80816d4 <pinAvailable>
 8081760:	b128      	cbz	r0, 808176e <digitalWrite+0x30>
    return;
  }

  HAL_GPIO_Write(pin, value);
 8081762:	4629      	mov	r1, r5
 8081764:	4620      	mov	r0, r4
}
 8081766:	e8bd 4038 	ldmia.w	sp!, {r3, r4, r5, lr}
  // Safety check
  if( !pinAvailable(pin) ) {
    return;
  }

  HAL_GPIO_Write(pin, value);
 808176a:	f7ff ba31 	b.w	8080bd0 <HAL_GPIO_Write>
 808176e:	bd38      	pop	{r3, r4, r5, pc}

08081770 <_Z19__fetch_global_Wirev>:
#include "i2c_hal.h"

#ifndef SPARK_WIRING_NO_I2C

TwoWire& __fetch_global_Wire()
{
 8081770:	b538      	push	{r3, r4, r5, lr}
	static TwoWire wire(HAL_I2C_INTERFACE1);
 8081772:	4d0b      	ldr	r5, [pc, #44]	; (80817a0 <_Z19__fetch_global_Wirev+0x30>)
 8081774:	6829      	ldr	r1, [r5, #0]
 8081776:	f011 0401 	ands.w	r4, r1, #1
 808177a:	d10f      	bne.n	808179c <_Z19__fetch_global_Wirev+0x2c>
 808177c:	4628      	mov	r0, r5
 808177e:	f7fe fc8e 	bl	808009e <__cxa_guard_acquire>
 8081782:	b158      	cbz	r0, 808179c <_Z19__fetch_global_Wirev+0x2c>
 8081784:	4621      	mov	r1, r4
 8081786:	4807      	ldr	r0, [pc, #28]	; (80817a4 <_Z19__fetch_global_Wirev+0x34>)
 8081788:	f7ff fba8 	bl	8080edc <_ZN7TwoWireC1E17HAL_I2C_Interface>
 808178c:	4628      	mov	r0, r5
 808178e:	f7fe fc8b 	bl	80800a8 <__cxa_guard_release>
 8081792:	4a05      	ldr	r2, [pc, #20]	; (80817a8 <_Z19__fetch_global_Wirev+0x38>)
 8081794:	4905      	ldr	r1, [pc, #20]	; (80817ac <_Z19__fetch_global_Wirev+0x3c>)
 8081796:	4803      	ldr	r0, [pc, #12]	; (80817a4 <_Z19__fetch_global_Wirev+0x34>)
 8081798:	f000 f850 	bl	808183c <__aeabi_atexit>
	return wire;
}
 808179c:	4801      	ldr	r0, [pc, #4]	; (80817a4 <_Z19__fetch_global_Wirev+0x34>)
 808179e:	bd38      	pop	{r3, r4, r5, pc}
 80817a0:	20000c78 	.word	0x20000c78
 80817a4:	20000c7c 	.word	0x20000c7c
 80817a8:	20000470 	.word	0x20000470
 80817ac:	08080e87 	.word	0x08080e87

080817b0 <_GLOBAL__sub_I_INADDR_NONE>:
#include "spark_wiring_ipaddress.h"

const IPAddress INADDR_NONE(0, 0, 0, 0);
 80817b0:	b513      	push	{r0, r1, r4, lr}
 80817b2:	4c08      	ldr	r4, [pc, #32]	; (80817d4 <_GLOBAL__sub_I_INADDR_NONE+0x24>)
 80817b4:	2300      	movs	r3, #0
 80817b6:	461a      	mov	r2, r3
 80817b8:	4619      	mov	r1, r3
 80817ba:	9300      	str	r3, [sp, #0]
 80817bc:	4620      	mov	r0, r4
 80817be:	f7ff fbcf 	bl	8080f60 <_ZN9IPAddressC1Ehhhh>
 80817c2:	4620      	mov	r0, r4
 80817c4:	4a04      	ldr	r2, [pc, #16]	; (80817d8 <_GLOBAL__sub_I_INADDR_NONE+0x28>)
 80817c6:	4905      	ldr	r1, [pc, #20]	; (80817dc <_GLOBAL__sub_I_INADDR_NONE+0x2c>)
 80817c8:	b002      	add	sp, #8
 80817ca:	e8bd 4010 	ldmia.w	sp!, {r4, lr}
 80817ce:	f000 b835 	b.w	808183c <__aeabi_atexit>
 80817d2:	bf00      	nop
 80817d4:	20000c90 	.word	0x20000c90
 80817d8:	20000470 	.word	0x20000470
 80817dc:	08080f09 	.word	0x08080f09

080817e0 <_GLOBAL__sub_I_SPI>:
#if Wiring_SPI1
SPIClass SPI1(HAL_SPI_INTERFACE2);
#endif

#if Wiring_SPI2
SPIClass SPI2(HAL_SPI_INTERFACE3);
 80817e0:	b570      	push	{r4, r5, r6, lr}
#include "core_hal.h"
#include "spark_macros.h"

#ifndef SPARK_WIRING_NO_SPI

SPIClass SPI(HAL_SPI_INTERFACE1);
 80817e2:	4e11      	ldr	r6, [pc, #68]	; (8081828 <_GLOBAL__sub_I_SPI+0x48>)
 80817e4:	4d11      	ldr	r5, [pc, #68]	; (808182c <_GLOBAL__sub_I_SPI+0x4c>)
 80817e6:	4c12      	ldr	r4, [pc, #72]	; (8081830 <_GLOBAL__sub_I_SPI+0x50>)
 80817e8:	2100      	movs	r1, #0
 80817ea:	4630      	mov	r0, r6
 80817ec:	f7ff fd60 	bl	80812b0 <_ZN8SPIClassC1E17HAL_SPI_Interface>
 80817f0:	4630      	mov	r0, r6

#if Wiring_SPI1
SPIClass SPI1(HAL_SPI_INTERFACE2);
 80817f2:	4e10      	ldr	r6, [pc, #64]	; (8081834 <_GLOBAL__sub_I_SPI+0x54>)
#include "core_hal.h"
#include "spark_macros.h"

#ifndef SPARK_WIRING_NO_SPI

SPIClass SPI(HAL_SPI_INTERFACE1);
 80817f4:	462a      	mov	r2, r5
 80817f6:	4621      	mov	r1, r4
 80817f8:	f000 f820 	bl	808183c <__aeabi_atexit>

#if Wiring_SPI1
SPIClass SPI1(HAL_SPI_INTERFACE2);
 80817fc:	2101      	movs	r1, #1
 80817fe:	4630      	mov	r0, r6
 8081800:	f7ff fd56 	bl	80812b0 <_ZN8SPIClassC1E17HAL_SPI_Interface>
 8081804:	4630      	mov	r0, r6
#endif

#if Wiring_SPI2
SPIClass SPI2(HAL_SPI_INTERFACE3);
 8081806:	4e0c      	ldr	r6, [pc, #48]	; (8081838 <_GLOBAL__sub_I_SPI+0x58>)
#ifndef SPARK_WIRING_NO_SPI

SPIClass SPI(HAL_SPI_INTERFACE1);

#if Wiring_SPI1
SPIClass SPI1(HAL_SPI_INTERFACE2);
 8081808:	462a      	mov	r2, r5
 808180a:	4621      	mov	r1, r4
 808180c:	f000 f816 	bl	808183c <__aeabi_atexit>
#endif

#if Wiring_SPI2
SPIClass SPI2(HAL_SPI_INTERFACE3);
 8081810:	2102      	movs	r1, #2
 8081812:	4630      	mov	r0, r6
 8081814:	f7ff fd4c 	bl	80812b0 <_ZN8SPIClassC1E17HAL_SPI_Interface>
 8081818:	462a      	mov	r2, r5
 808181a:	4621      	mov	r1, r4
 808181c:	4630      	mov	r0, r6
 808181e:	e8bd 4070 	ldmia.w	sp!, {r4, r5, r6, lr}
 8081822:	f000 b80b 	b.w	808183c <__aeabi_atexit>
 8081826:	bf00      	nop
 8081828:	20000c98 	.word	0x20000c98
 808182c:	20000470 	.word	0x20000470
 8081830:	080812a1 	.word	0x080812a1
 8081834:	20000ca8 	.word	0x20000ca8
 8081838:	20000cb8 	.word	0x20000cb8

0808183c <__aeabi_atexit>:
 808183c:	460b      	mov	r3, r1
 808183e:	4601      	mov	r1, r0
 8081840:	4618      	mov	r0, r3
 8081842:	f000 bdfd 	b.w	8082440 <__cxa_atexit>
	...

08081848 <_GLOBAL__sub_I__ZNSt12ctype_bynameIwEC2ERKSsj>:
 8081848:	4b24      	ldr	r3, [pc, #144]	; (80818dc <_GLOBAL__sub_I__ZNSt12ctype_bynameIwEC2ERKSsj+0x94>)
 808184a:	681a      	ldr	r2, [r3, #0]
 808184c:	07d0      	lsls	r0, r2, #31
 808184e:	bf5c      	itt	pl
 8081850:	2201      	movpl	r2, #1
 8081852:	601a      	strpl	r2, [r3, #0]
 8081854:	4b22      	ldr	r3, [pc, #136]	; (80818e0 <_GLOBAL__sub_I__ZNSt12ctype_bynameIwEC2ERKSsj+0x98>)
 8081856:	681a      	ldr	r2, [r3, #0]
 8081858:	07d1      	lsls	r1, r2, #31
 808185a:	bf5c      	itt	pl
 808185c:	2201      	movpl	r2, #1
 808185e:	601a      	strpl	r2, [r3, #0]
 8081860:	4b20      	ldr	r3, [pc, #128]	; (80818e4 <_GLOBAL__sub_I__ZNSt12ctype_bynameIwEC2ERKSsj+0x9c>)
 8081862:	681a      	ldr	r2, [r3, #0]
 8081864:	07d2      	lsls	r2, r2, #31
 8081866:	bf5c      	itt	pl
 8081868:	2201      	movpl	r2, #1
 808186a:	601a      	strpl	r2, [r3, #0]
 808186c:	4b1e      	ldr	r3, [pc, #120]	; (80818e8 <_GLOBAL__sub_I__ZNSt12ctype_bynameIwEC2ERKSsj+0xa0>)
 808186e:	681a      	ldr	r2, [r3, #0]
 8081870:	07d0      	lsls	r0, r2, #31
 8081872:	bf5c      	itt	pl
 8081874:	2201      	movpl	r2, #1
 8081876:	601a      	strpl	r2, [r3, #0]
 8081878:	4b1c      	ldr	r3, [pc, #112]	; (80818ec <_GLOBAL__sub_I__ZNSt12ctype_bynameIwEC2ERKSsj+0xa4>)
 808187a:	681a      	ldr	r2, [r3, #0]
 808187c:	07d1      	lsls	r1, r2, #31
 808187e:	bf5c      	itt	pl
 8081880:	2201      	movpl	r2, #1
 8081882:	601a      	strpl	r2, [r3, #0]
 8081884:	4b1a      	ldr	r3, [pc, #104]	; (80818f0 <_GLOBAL__sub_I__ZNSt12ctype_bynameIwEC2ERKSsj+0xa8>)
 8081886:	681a      	ldr	r2, [r3, #0]
 8081888:	07d2      	lsls	r2, r2, #31
 808188a:	bf5c      	itt	pl
 808188c:	2201      	movpl	r2, #1
 808188e:	601a      	strpl	r2, [r3, #0]
 8081890:	4b18      	ldr	r3, [pc, #96]	; (80818f4 <_GLOBAL__sub_I__ZNSt12ctype_bynameIwEC2ERKSsj+0xac>)
 8081892:	681a      	ldr	r2, [r3, #0]
 8081894:	07d0      	lsls	r0, r2, #31
 8081896:	bf5c      	itt	pl
 8081898:	2201      	movpl	r2, #1
 808189a:	601a      	strpl	r2, [r3, #0]
 808189c:	4b16      	ldr	r3, [pc, #88]	; (80818f8 <_GLOBAL__sub_I__ZNSt12ctype_bynameIwEC2ERKSsj+0xb0>)
 808189e:	681a      	ldr	r2, [r3, #0]
 80818a0:	07d1      	lsls	r1, r2, #31
 80818a2:	bf5c      	itt	pl
 80818a4:	2201      	movpl	r2, #1
 80818a6:	601a      	strpl	r2, [r3, #0]
 80818a8:	4b14      	ldr	r3, [pc, #80]	; (80818fc <_GLOBAL__sub_I__ZNSt12ctype_bynameIwEC2ERKSsj+0xb4>)
 80818aa:	681a      	ldr	r2, [r3, #0]
 80818ac:	07d2      	lsls	r2, r2, #31
 80818ae:	bf5c      	itt	pl
 80818b0:	2201      	movpl	r2, #1
 80818b2:	601a      	strpl	r2, [r3, #0]
 80818b4:	4b12      	ldr	r3, [pc, #72]	; (8081900 <_GLOBAL__sub_I__ZNSt12ctype_bynameIwEC2ERKSsj+0xb8>)
 80818b6:	681a      	ldr	r2, [r3, #0]
 80818b8:	07d0      	lsls	r0, r2, #31
 80818ba:	bf5c      	itt	pl
 80818bc:	2201      	movpl	r2, #1
 80818be:	601a      	strpl	r2, [r3, #0]
 80818c0:	4b10      	ldr	r3, [pc, #64]	; (8081904 <_GLOBAL__sub_I__ZNSt12ctype_bynameIwEC2ERKSsj+0xbc>)
 80818c2:	681a      	ldr	r2, [r3, #0]
 80818c4:	07d1      	lsls	r1, r2, #31
 80818c6:	bf5c      	itt	pl
 80818c8:	2201      	movpl	r2, #1
 80818ca:	601a      	strpl	r2, [r3, #0]
 80818cc:	4b0e      	ldr	r3, [pc, #56]	; (8081908 <_GLOBAL__sub_I__ZNSt12ctype_bynameIwEC2ERKSsj+0xc0>)
 80818ce:	681a      	ldr	r2, [r3, #0]
 80818d0:	07d2      	lsls	r2, r2, #31
 80818d2:	bf5c      	itt	pl
 80818d4:	2201      	movpl	r2, #1
 80818d6:	601a      	strpl	r2, [r3, #0]
 80818d8:	4770      	bx	lr
 80818da:	bf00      	nop
 80818dc:	20000cf4 	.word	0x20000cf4
 80818e0:	20000cf0 	.word	0x20000cf0
 80818e4:	20000cec 	.word	0x20000cec
 80818e8:	20000ce8 	.word	0x20000ce8
 80818ec:	20000ce4 	.word	0x20000ce4
 80818f0:	20000ce0 	.word	0x20000ce0
 80818f4:	20000cdc 	.word	0x20000cdc
 80818f8:	20000cd8 	.word	0x20000cd8
 80818fc:	20000cd4 	.word	0x20000cd4
 8081900:	20000cd0 	.word	0x20000cd0
 8081904:	20000ccc 	.word	0x20000ccc
 8081908:	20000cc8 	.word	0x20000cc8

0808190c <_GLOBAL__sub_I__ZNSt12ctype_bynameIcEC2ERKNSt7__cxx1112basic_stringIcSt11char_traitsIcESaIcEEEj>:
 808190c:	4b18      	ldr	r3, [pc, #96]	; (8081970 <_GLOBAL__sub_I__ZNSt12ctype_bynameIcEC2ERKNSt7__cxx1112basic_stringIcSt11char_traitsIcESaIcEEEj+0x64>)
 808190e:	681a      	ldr	r2, [r3, #0]
 8081910:	07d1      	lsls	r1, r2, #31
 8081912:	bf5c      	itt	pl
 8081914:	2201      	movpl	r2, #1
 8081916:	601a      	strpl	r2, [r3, #0]
 8081918:	4b16      	ldr	r3, [pc, #88]	; (8081974 <_GLOBAL__sub_I__ZNSt12ctype_bynameIcEC2ERKNSt7__cxx1112basic_stringIcSt11char_traitsIcESaIcEEEj+0x68>)
 808191a:	681a      	ldr	r2, [r3, #0]
 808191c:	07d2      	lsls	r2, r2, #31
 808191e:	bf5c      	itt	pl
 8081920:	2201      	movpl	r2, #1
 8081922:	601a      	strpl	r2, [r3, #0]
 8081924:	4b14      	ldr	r3, [pc, #80]	; (8081978 <_GLOBAL__sub_I__ZNSt12ctype_bynameIcEC2ERKNSt7__cxx1112basic_stringIcSt11char_traitsIcESaIcEEEj+0x6c>)
 8081926:	681a      	ldr	r2, [r3, #0]
 8081928:	07d0      	lsls	r0, r2, #31
 808192a:	bf5c      	itt	pl
 808192c:	2201      	movpl	r2, #1
 808192e:	601a      	strpl	r2, [r3, #0]
 8081930:	4b12      	ldr	r3, [pc, #72]	; (808197c <_GLOBAL__sub_I__ZNSt12ctype_bynameIcEC2ERKNSt7__cxx1112basic_stringIcSt11char_traitsIcESaIcEEEj+0x70>)
 8081932:	681a      	ldr	r2, [r3, #0]
 8081934:	07d1      	lsls	r1, r2, #31
 8081936:	bf5c      	itt	pl
 8081938:	2201      	movpl	r2, #1
 808193a:	601a      	strpl	r2, [r3, #0]
 808193c:	4b10      	ldr	r3, [pc, #64]	; (8081980 <_GLOBAL__sub_I__ZNSt12ctype_bynameIcEC2ERKNSt7__cxx1112basic_stringIcSt11char_traitsIcESaIcEEEj+0x74>)
 808193e:	681a      	ldr	r2, [r3, #0]
 8081940:	07d2      	lsls	r2, r2, #31
 8081942:	bf5c      	itt	pl
 8081944:	2201      	movpl	r2, #1
 8081946:	601a      	strpl	r2, [r3, #0]
 8081948:	4b0e      	ldr	r3, [pc, #56]	; (8081984 <_GLOBAL__sub_I__ZNSt12ctype_bynameIcEC2ERKNSt7__cxx1112basic_stringIcSt11char_traitsIcESaIcEEEj+0x78>)
 808194a:	681a      	ldr	r2, [r3, #0]
 808194c:	07d0      	lsls	r0, r2, #31
 808194e:	bf5c      	itt	pl
 8081950:	2201      	movpl	r2, #1
 8081952:	601a      	strpl	r2, [r3, #0]
 8081954:	4b0c      	ldr	r3, [pc, #48]	; (8081988 <_GLOBAL__sub_I__ZNSt12ctype_bynameIcEC2ERKNSt7__cxx1112basic_stringIcSt11char_traitsIcESaIcEEEj+0x7c>)
 8081956:	681a      	ldr	r2, [r3, #0]
 8081958:	07d1      	lsls	r1, r2, #31
 808195a:	bf5c      	itt	pl
 808195c:	2201      	movpl	r2, #1
 808195e:	601a      	strpl	r2, [r3, #0]
 8081960:	4b0a      	ldr	r3, [pc, #40]	; (808198c <_GLOBAL__sub_I__ZNSt12ctype_bynameIcEC2ERKNSt7__cxx1112basic_stringIcSt11char_traitsIcESaIcEEEj+0x80>)
 8081962:	681a      	ldr	r2, [r3, #0]
 8081964:	07d2      	lsls	r2, r2, #31
 8081966:	bf5c      	itt	pl
 8081968:	2201      	movpl	r2, #1
 808196a:	601a      	strpl	r2, [r3, #0]
 808196c:	4770      	bx	lr
 808196e:	bf00      	nop
 8081970:	20000d14 	.word	0x20000d14
 8081974:	20000d10 	.word	0x20000d10
 8081978:	20000d0c 	.word	0x20000d0c
 808197c:	20000d08 	.word	0x20000d08
 8081980:	20000d04 	.word	0x20000d04
 8081984:	20000d00 	.word	0x20000d00
 8081988:	20000cfc 	.word	0x20000cfc
 808198c:	20000cf8 	.word	0x20000cf8

08081990 <_GLOBAL__sub_I__ZNSt12ctype_bynameIwEC2ERKNSt7__cxx1112basic_stringIcSt11char_traitsIcESaIcEEEj>:
 8081990:	4b18      	ldr	r3, [pc, #96]	; (80819f4 <_GLOBAL__sub_I__ZNSt12ctype_bynameIwEC2ERKNSt7__cxx1112basic_stringIcSt11char_traitsIcESaIcEEEj+0x64>)
 8081992:	681a      	ldr	r2, [r3, #0]
 8081994:	07d1      	lsls	r1, r2, #31
 8081996:	bf5c      	itt	pl
 8081998:	2201      	movpl	r2, #1
 808199a:	601a      	strpl	r2, [r3, #0]
 808199c:	4b16      	ldr	r3, [pc, #88]	; (80819f8 <_GLOBAL__sub_I__ZNSt12ctype_bynameIwEC2ERKNSt7__cxx1112basic_stringIcSt11char_traitsIcESaIcEEEj+0x68>)
 808199e:	681a      	ldr	r2, [r3, #0]
 80819a0:	07d2      	lsls	r2, r2, #31
 80819a2:	bf5c      	itt	pl
 80819a4:	2201      	movpl	r2, #1
 80819a6:	601a      	strpl	r2, [r3, #0]
 80819a8:	4b14      	ldr	r3, [pc, #80]	; (80819fc <_GLOBAL__sub_I__ZNSt12ctype_bynameIwEC2ERKNSt7__cxx1112basic_stringIcSt11char_traitsIcESaIcEEEj+0x6c>)
 80819aa:	681a      	ldr	r2, [r3, #0]
 80819ac:	07d0      	lsls	r0, r2, #31
 80819ae:	bf5c      	itt	pl
 80819b0:	2201      	movpl	r2, #1
 80819b2:	601a      	strpl	r2, [r3, #0]
 80819b4:	4b12      	ldr	r3, [pc, #72]	; (8081a00 <_GLOBAL__sub_I__ZNSt12ctype_bynameIwEC2ERKNSt7__cxx1112basic_stringIcSt11char_traitsIcESaIcEEEj+0x70>)
 80819b6:	681a      	ldr	r2, [r3, #0]
 80819b8:	07d1      	lsls	r1, r2, #31
 80819ba:	bf5c      	itt	pl
 80819bc:	2201      	movpl	r2, #1
 80819be:	601a      	strpl	r2, [r3, #0]
 80819c0:	4b10      	ldr	r3, [pc, #64]	; (8081a04 <_GLOBAL__sub_I__ZNSt12ctype_bynameIwEC2ERKNSt7__cxx1112basic_stringIcSt11char_traitsIcESaIcEEEj+0x74>)
 80819c2:	681a      	ldr	r2, [r3, #0]
 80819c4:	07d2      	lsls	r2, r2, #31
 80819c6:	bf5c      	itt	pl
 80819c8:	2201      	movpl	r2, #1
 80819ca:	601a      	strpl	r2, [r3, #0]
 80819cc:	4b0e      	ldr	r3, [pc, #56]	; (8081a08 <_GLOBAL__sub_I__ZNSt12ctype_bynameIwEC2ERKNSt7__cxx1112basic_stringIcSt11char_traitsIcESaIcEEEj+0x78>)
 80819ce:	681a      	ldr	r2, [r3, #0]
 80819d0:	07d0      	lsls	r0, r2, #31
 80819d2:	bf5c      	itt	pl
 80819d4:	2201      	movpl	r2, #1
 80819d6:	601a      	strpl	r2, [r3, #0]
 80819d8:	4b0c      	ldr	r3, [pc, #48]	; (8081a0c <_GLOBAL__sub_I__ZNSt12ctype_bynameIwEC2ERKNSt7__cxx1112basic_stringIcSt11char_traitsIcESaIcEEEj+0x7c>)
 80819da:	681a      	ldr	r2, [r3, #0]
 80819dc:	07d1      	lsls	r1, r2, #31
 80819de:	bf5c      	itt	pl
 80819e0:	2201      	movpl	r2, #1
 80819e2:	601a      	strpl	r2, [r3, #0]
 80819e4:	4b0a      	ldr	r3, [pc, #40]	; (8081a10 <_GLOBAL__sub_I__ZNSt12ctype_bynameIwEC2ERKNSt7__cxx1112basic_stringIcSt11char_traitsIcESaIcEEEj+0x80>)
 80819e6:	681a      	ldr	r2, [r3, #0]
 80819e8:	07d2      	lsls	r2, r2, #31
 80819ea:	bf5c      	itt	pl
 80819ec:	2201      	movpl	r2, #1
 80819ee:	601a      	strpl	r2, [r3, #0]
 80819f0:	4770      	bx	lr
 80819f2:	bf00      	nop
 80819f4:	20000d34 	.word	0x20000d34
 80819f8:	20000d30 	.word	0x20000d30
 80819fc:	20000d2c 	.word	0x20000d2c
 8081a00:	20000d28 	.word	0x20000d28
 8081a04:	20000d24 	.word	0x20000d24
 8081a08:	20000d20 	.word	0x20000d20
 8081a0c:	20000d1c 	.word	0x20000d1c
 8081a10:	20000d18 	.word	0x20000d18

08081a14 <_GLOBAL__sub_I__ZNSt12ctype_bynameIcEC2ERKSsj>:
 8081a14:	4b24      	ldr	r3, [pc, #144]	; (8081aa8 <_GLOBAL__sub_I__ZNSt12ctype_bynameIcEC2ERKSsj+0x94>)
 8081a16:	681a      	ldr	r2, [r3, #0]
 8081a18:	07d0      	lsls	r0, r2, #31
 8081a1a:	bf5c      	itt	pl
 8081a1c:	2201      	movpl	r2, #1
 8081a1e:	601a      	strpl	r2, [r3, #0]
 8081a20:	4b22      	ldr	r3, [pc, #136]	; (8081aac <_GLOBAL__sub_I__ZNSt12ctype_bynameIcEC2ERKSsj+0x98>)
 8081a22:	681a      	ldr	r2, [r3, #0]
 8081a24:	07d1      	lsls	r1, r2, #31
 8081a26:	bf5c      	itt	pl
 8081a28:	2201      	movpl	r2, #1
 8081a2a:	601a      	strpl	r2, [r3, #0]
 8081a2c:	4b20      	ldr	r3, [pc, #128]	; (8081ab0 <_GLOBAL__sub_I__ZNSt12ctype_bynameIcEC2ERKSsj+0x9c>)
 8081a2e:	681a      	ldr	r2, [r3, #0]
 8081a30:	07d2      	lsls	r2, r2, #31
 8081a32:	bf5c      	itt	pl
 8081a34:	2201      	movpl	r2, #1
 8081a36:	601a      	strpl	r2, [r3, #0]
 8081a38:	4b1e      	ldr	r3, [pc, #120]	; (8081ab4 <_GLOBAL__sub_I__ZNSt12ctype_bynameIcEC2ERKSsj+0xa0>)
 8081a3a:	681a      	ldr	r2, [r3, #0]
 8081a3c:	07d0      	lsls	r0, r2, #31
 8081a3e:	bf5c      	itt	pl
 8081a40:	2201      	movpl	r2, #1
 8081a42:	601a      	strpl	r2, [r3, #0]
 8081a44:	4b1c      	ldr	r3, [pc, #112]	; (8081ab8 <_GLOBAL__sub_I__ZNSt12ctype_bynameIcEC2ERKSsj+0xa4>)
 8081a46:	681a      	ldr	r2, [r3, #0]
 8081a48:	07d1      	lsls	r1, r2, #31
 8081a4a:	bf5c      	itt	pl
 8081a4c:	2201      	movpl	r2, #1
 8081a4e:	601a      	strpl	r2, [r3, #0]
 8081a50:	4b1a      	ldr	r3, [pc, #104]	; (8081abc <_GLOBAL__sub_I__ZNSt12ctype_bynameIcEC2ERKSsj+0xa8>)
 8081a52:	681a      	ldr	r2, [r3, #0]
 8081a54:	07d2      	lsls	r2, r2, #31
 8081a56:	bf5c      	itt	pl
 8081a58:	2201      	movpl	r2, #1
 8081a5a:	601a      	strpl	r2, [r3, #0]
 8081a5c:	4b18      	ldr	r3, [pc, #96]	; (8081ac0 <_GLOBAL__sub_I__ZNSt12ctype_bynameIcEC2ERKSsj+0xac>)
 8081a5e:	681a      	ldr	r2, [r3, #0]
 8081a60:	07d0      	lsls	r0, r2, #31
 8081a62:	bf5c      	itt	pl
 8081a64:	2201      	movpl	r2, #1
 8081a66:	601a      	strpl	r2, [r3, #0]
 8081a68:	4b16      	ldr	r3, [pc, #88]	; (8081ac4 <_GLOBAL__sub_I__ZNSt12ctype_bynameIcEC2ERKSsj+0xb0>)
 8081a6a:	681a      	ldr	r2, [r3, #0]
 8081a6c:	07d1      	lsls	r1, r2, #31
 8081a6e:	bf5c      	itt	pl
 8081a70:	2201      	movpl	r2, #1
 8081a72:	601a      	strpl	r2, [r3, #0]
 8081a74:	4b14      	ldr	r3, [pc, #80]	; (8081ac8 <_GLOBAL__sub_I__ZNSt12ctype_bynameIcEC2ERKSsj+0xb4>)
 8081a76:	681a      	ldr	r2, [r3, #0]
 8081a78:	07d2      	lsls	r2, r2, #31
 8081a7a:	bf5c      	itt	pl
 8081a7c:	2201      	movpl	r2, #1
 8081a7e:	601a      	strpl	r2, [r3, #0]
 8081a80:	4b12      	ldr	r3, [pc, #72]	; (8081acc <_GLOBAL__sub_I__ZNSt12ctype_bynameIcEC2ERKSsj+0xb8>)
 8081a82:	681a      	ldr	r2, [r3, #0]
 8081a84:	07d0      	lsls	r0, r2, #31
 8081a86:	bf5c      	itt	pl
 8081a88:	2201      	movpl	r2, #1
 8081a8a:	601a      	strpl	r2, [r3, #0]
 8081a8c:	4b10      	ldr	r3, [pc, #64]	; (8081ad0 <_GLOBAL__sub_I__ZNSt12ctype_bynameIcEC2ERKSsj+0xbc>)
 8081a8e:	681a      	ldr	r2, [r3, #0]
 8081a90:	07d1      	lsls	r1, r2, #31
 8081a92:	bf5c      	itt	pl
 8081a94:	2201      	movpl	r2, #1
 8081a96:	601a      	strpl	r2, [r3, #0]
 8081a98:	4b0e      	ldr	r3, [pc, #56]	; (8081ad4 <_GLOBAL__sub_I__ZNSt12ctype_bynameIcEC2ERKSsj+0xc0>)
 8081a9a:	681a      	ldr	r2, [r3, #0]
 8081a9c:	07d2      	lsls	r2, r2, #31
 8081a9e:	bf5c      	itt	pl
 8081aa0:	2201      	movpl	r2, #1
 8081aa2:	601a      	strpl	r2, [r3, #0]
 8081aa4:	4770      	bx	lr
 8081aa6:	bf00      	nop
 8081aa8:	20000d64 	.word	0x20000d64
 8081aac:	20000d60 	.word	0x20000d60
 8081ab0:	20000d5c 	.word	0x20000d5c
 8081ab4:	20000d58 	.word	0x20000d58
 8081ab8:	20000d54 	.word	0x20000d54
 8081abc:	20000d50 	.word	0x20000d50
 8081ac0:	20000d4c 	.word	0x20000d4c
 8081ac4:	20000d48 	.word	0x20000d48
 8081ac8:	20000d44 	.word	0x20000d44
 8081acc:	20000d40 	.word	0x20000d40
 8081ad0:	20000d3c 	.word	0x20000d3c
 8081ad4:	20000d38 	.word	0x20000d38

08081ad8 <__aeabi_drsub>:
 8081ad8:	f081 4100 	eor.w	r1, r1, #2147483648	; 0x80000000
 8081adc:	e002      	b.n	8081ae4 <__adddf3>
 8081ade:	bf00      	nop

08081ae0 <__aeabi_dsub>:
 8081ae0:	f083 4300 	eor.w	r3, r3, #2147483648	; 0x80000000

08081ae4 <__adddf3>:
 8081ae4:	b530      	push	{r4, r5, lr}
 8081ae6:	ea4f 0441 	mov.w	r4, r1, lsl #1
 8081aea:	ea4f 0543 	mov.w	r5, r3, lsl #1
 8081aee:	ea94 0f05 	teq	r4, r5
 8081af2:	bf08      	it	eq
 8081af4:	ea90 0f02 	teqeq	r0, r2
 8081af8:	bf1f      	itttt	ne
 8081afa:	ea54 0c00 	orrsne.w	ip, r4, r0
 8081afe:	ea55 0c02 	orrsne.w	ip, r5, r2
 8081b02:	ea7f 5c64 	mvnsne.w	ip, r4, asr #21
 8081b06:	ea7f 5c65 	mvnsne.w	ip, r5, asr #21
 8081b0a:	f000 80e2 	beq.w	8081cd2 <__adddf3+0x1ee>
 8081b0e:	ea4f 5454 	mov.w	r4, r4, lsr #21
 8081b12:	ebd4 5555 	rsbs	r5, r4, r5, lsr #21
 8081b16:	bfb8      	it	lt
 8081b18:	426d      	neglt	r5, r5
 8081b1a:	dd0c      	ble.n	8081b36 <__adddf3+0x52>
 8081b1c:	442c      	add	r4, r5
 8081b1e:	ea80 0202 	eor.w	r2, r0, r2
 8081b22:	ea81 0303 	eor.w	r3, r1, r3
 8081b26:	ea82 0000 	eor.w	r0, r2, r0
 8081b2a:	ea83 0101 	eor.w	r1, r3, r1
 8081b2e:	ea80 0202 	eor.w	r2, r0, r2
 8081b32:	ea81 0303 	eor.w	r3, r1, r3
 8081b36:	2d36      	cmp	r5, #54	; 0x36
 8081b38:	bf88      	it	hi
 8081b3a:	bd30      	pophi	{r4, r5, pc}
 8081b3c:	f011 4f00 	tst.w	r1, #2147483648	; 0x80000000
 8081b40:	ea4f 3101 	mov.w	r1, r1, lsl #12
 8081b44:	f44f 1c80 	mov.w	ip, #1048576	; 0x100000
 8081b48:	ea4c 3111 	orr.w	r1, ip, r1, lsr #12
 8081b4c:	d002      	beq.n	8081b54 <__adddf3+0x70>
 8081b4e:	4240      	negs	r0, r0
 8081b50:	eb61 0141 	sbc.w	r1, r1, r1, lsl #1
 8081b54:	f013 4f00 	tst.w	r3, #2147483648	; 0x80000000
 8081b58:	ea4f 3303 	mov.w	r3, r3, lsl #12
 8081b5c:	ea4c 3313 	orr.w	r3, ip, r3, lsr #12
 8081b60:	d002      	beq.n	8081b68 <__adddf3+0x84>
 8081b62:	4252      	negs	r2, r2
 8081b64:	eb63 0343 	sbc.w	r3, r3, r3, lsl #1
 8081b68:	ea94 0f05 	teq	r4, r5
 8081b6c:	f000 80a7 	beq.w	8081cbe <__adddf3+0x1da>
 8081b70:	f1a4 0401 	sub.w	r4, r4, #1
 8081b74:	f1d5 0e20 	rsbs	lr, r5, #32
 8081b78:	db0d      	blt.n	8081b96 <__adddf3+0xb2>
 8081b7a:	fa02 fc0e 	lsl.w	ip, r2, lr
 8081b7e:	fa22 f205 	lsr.w	r2, r2, r5
 8081b82:	1880      	adds	r0, r0, r2
 8081b84:	f141 0100 	adc.w	r1, r1, #0
 8081b88:	fa03 f20e 	lsl.w	r2, r3, lr
 8081b8c:	1880      	adds	r0, r0, r2
 8081b8e:	fa43 f305 	asr.w	r3, r3, r5
 8081b92:	4159      	adcs	r1, r3
 8081b94:	e00e      	b.n	8081bb4 <__adddf3+0xd0>
 8081b96:	f1a5 0520 	sub.w	r5, r5, #32
 8081b9a:	f10e 0e20 	add.w	lr, lr, #32
 8081b9e:	2a01      	cmp	r2, #1
 8081ba0:	fa03 fc0e 	lsl.w	ip, r3, lr
 8081ba4:	bf28      	it	cs
 8081ba6:	f04c 0c02 	orrcs.w	ip, ip, #2
 8081baa:	fa43 f305 	asr.w	r3, r3, r5
 8081bae:	18c0      	adds	r0, r0, r3
 8081bb0:	eb51 71e3 	adcs.w	r1, r1, r3, asr #31
 8081bb4:	f001 4500 	and.w	r5, r1, #2147483648	; 0x80000000
 8081bb8:	d507      	bpl.n	8081bca <__adddf3+0xe6>
 8081bba:	f04f 0e00 	mov.w	lr, #0
 8081bbe:	f1dc 0c00 	rsbs	ip, ip, #0
 8081bc2:	eb7e 0000 	sbcs.w	r0, lr, r0
 8081bc6:	eb6e 0101 	sbc.w	r1, lr, r1
 8081bca:	f5b1 1f80 	cmp.w	r1, #1048576	; 0x100000
 8081bce:	d31b      	bcc.n	8081c08 <__adddf3+0x124>
 8081bd0:	f5b1 1f00 	cmp.w	r1, #2097152	; 0x200000
 8081bd4:	d30c      	bcc.n	8081bf0 <__adddf3+0x10c>
 8081bd6:	0849      	lsrs	r1, r1, #1
 8081bd8:	ea5f 0030 	movs.w	r0, r0, rrx
 8081bdc:	ea4f 0c3c 	mov.w	ip, ip, rrx
 8081be0:	f104 0401 	add.w	r4, r4, #1
 8081be4:	ea4f 5244 	mov.w	r2, r4, lsl #21
 8081be8:	f512 0f80 	cmn.w	r2, #4194304	; 0x400000
 8081bec:	f080 809a 	bcs.w	8081d24 <__adddf3+0x240>
 8081bf0:	f1bc 4f00 	cmp.w	ip, #2147483648	; 0x80000000
 8081bf4:	bf08      	it	eq
 8081bf6:	ea5f 0c50 	movseq.w	ip, r0, lsr #1
 8081bfa:	f150 0000 	adcs.w	r0, r0, #0
 8081bfe:	eb41 5104 	adc.w	r1, r1, r4, lsl #20
 8081c02:	ea41 0105 	orr.w	r1, r1, r5
 8081c06:	bd30      	pop	{r4, r5, pc}
 8081c08:	ea5f 0c4c 	movs.w	ip, ip, lsl #1
 8081c0c:	4140      	adcs	r0, r0
 8081c0e:	eb41 0101 	adc.w	r1, r1, r1
 8081c12:	f411 1f80 	tst.w	r1, #1048576	; 0x100000
 8081c16:	f1a4 0401 	sub.w	r4, r4, #1
 8081c1a:	d1e9      	bne.n	8081bf0 <__adddf3+0x10c>
 8081c1c:	f091 0f00 	teq	r1, #0
 8081c20:	bf04      	itt	eq
 8081c22:	4601      	moveq	r1, r0
 8081c24:	2000      	moveq	r0, #0
 8081c26:	fab1 f381 	clz	r3, r1
 8081c2a:	bf08      	it	eq
 8081c2c:	3320      	addeq	r3, #32
 8081c2e:	f1a3 030b 	sub.w	r3, r3, #11
 8081c32:	f1b3 0220 	subs.w	r2, r3, #32
 8081c36:	da0c      	bge.n	8081c52 <__adddf3+0x16e>
 8081c38:	320c      	adds	r2, #12
 8081c3a:	dd08      	ble.n	8081c4e <__adddf3+0x16a>
 8081c3c:	f102 0c14 	add.w	ip, r2, #20
 8081c40:	f1c2 020c 	rsb	r2, r2, #12
 8081c44:	fa01 f00c 	lsl.w	r0, r1, ip
 8081c48:	fa21 f102 	lsr.w	r1, r1, r2
 8081c4c:	e00c      	b.n	8081c68 <__adddf3+0x184>
 8081c4e:	f102 0214 	add.w	r2, r2, #20
 8081c52:	bfd8      	it	le
 8081c54:	f1c2 0c20 	rsble	ip, r2, #32
 8081c58:	fa01 f102 	lsl.w	r1, r1, r2
 8081c5c:	fa20 fc0c 	lsr.w	ip, r0, ip
 8081c60:	bfdc      	itt	le
 8081c62:	ea41 010c 	orrle.w	r1, r1, ip
 8081c66:	4090      	lslle	r0, r2
 8081c68:	1ae4      	subs	r4, r4, r3
 8081c6a:	bfa2      	ittt	ge
 8081c6c:	eb01 5104 	addge.w	r1, r1, r4, lsl #20
 8081c70:	4329      	orrge	r1, r5
 8081c72:	bd30      	popge	{r4, r5, pc}
 8081c74:	ea6f 0404 	mvn.w	r4, r4
 8081c78:	3c1f      	subs	r4, #31
 8081c7a:	da1c      	bge.n	8081cb6 <__adddf3+0x1d2>
 8081c7c:	340c      	adds	r4, #12
 8081c7e:	dc0e      	bgt.n	8081c9e <__adddf3+0x1ba>
 8081c80:	f104 0414 	add.w	r4, r4, #20
 8081c84:	f1c4 0220 	rsb	r2, r4, #32
 8081c88:	fa20 f004 	lsr.w	r0, r0, r4
 8081c8c:	fa01 f302 	lsl.w	r3, r1, r2
 8081c90:	ea40 0003 	orr.w	r0, r0, r3
 8081c94:	fa21 f304 	lsr.w	r3, r1, r4
 8081c98:	ea45 0103 	orr.w	r1, r5, r3
 8081c9c:	bd30      	pop	{r4, r5, pc}
 8081c9e:	f1c4 040c 	rsb	r4, r4, #12
 8081ca2:	f1c4 0220 	rsb	r2, r4, #32
 8081ca6:	fa20 f002 	lsr.w	r0, r0, r2
 8081caa:	fa01 f304 	lsl.w	r3, r1, r4
 8081cae:	ea40 0003 	orr.w	r0, r0, r3
 8081cb2:	4629      	mov	r1, r5
 8081cb4:	bd30      	pop	{r4, r5, pc}
 8081cb6:	fa21 f004 	lsr.w	r0, r1, r4
 8081cba:	4629      	mov	r1, r5
 8081cbc:	bd30      	pop	{r4, r5, pc}
 8081cbe:	f094 0f00 	teq	r4, #0
 8081cc2:	f483 1380 	eor.w	r3, r3, #1048576	; 0x100000
 8081cc6:	bf06      	itte	eq
 8081cc8:	f481 1180 	eoreq.w	r1, r1, #1048576	; 0x100000
 8081ccc:	3401      	addeq	r4, #1
 8081cce:	3d01      	subne	r5, #1
 8081cd0:	e74e      	b.n	8081b70 <__adddf3+0x8c>
 8081cd2:	ea7f 5c64 	mvns.w	ip, r4, asr #21
 8081cd6:	bf18      	it	ne
 8081cd8:	ea7f 5c65 	mvnsne.w	ip, r5, asr #21
 8081cdc:	d029      	beq.n	8081d32 <__adddf3+0x24e>
 8081cde:	ea94 0f05 	teq	r4, r5
 8081ce2:	bf08      	it	eq
 8081ce4:	ea90 0f02 	teqeq	r0, r2
 8081ce8:	d005      	beq.n	8081cf6 <__adddf3+0x212>
 8081cea:	ea54 0c00 	orrs.w	ip, r4, r0
 8081cee:	bf04      	itt	eq
 8081cf0:	4619      	moveq	r1, r3
 8081cf2:	4610      	moveq	r0, r2
 8081cf4:	bd30      	pop	{r4, r5, pc}
 8081cf6:	ea91 0f03 	teq	r1, r3
 8081cfa:	bf1e      	ittt	ne
 8081cfc:	2100      	movne	r1, #0
 8081cfe:	2000      	movne	r0, #0
 8081d00:	bd30      	popne	{r4, r5, pc}
 8081d02:	ea5f 5c54 	movs.w	ip, r4, lsr #21
 8081d06:	d105      	bne.n	8081d14 <__adddf3+0x230>
 8081d08:	0040      	lsls	r0, r0, #1
 8081d0a:	4149      	adcs	r1, r1
 8081d0c:	bf28      	it	cs
 8081d0e:	f041 4100 	orrcs.w	r1, r1, #2147483648	; 0x80000000
 8081d12:	bd30      	pop	{r4, r5, pc}
 8081d14:	f514 0480 	adds.w	r4, r4, #4194304	; 0x400000
 8081d18:	bf3c      	itt	cc
 8081d1a:	f501 1180 	addcc.w	r1, r1, #1048576	; 0x100000
 8081d1e:	bd30      	popcc	{r4, r5, pc}
 8081d20:	f001 4500 	and.w	r5, r1, #2147483648	; 0x80000000
 8081d24:	f045 41fe 	orr.w	r1, r5, #2130706432	; 0x7f000000
 8081d28:	f441 0170 	orr.w	r1, r1, #15728640	; 0xf00000
 8081d2c:	f04f 0000 	mov.w	r0, #0
 8081d30:	bd30      	pop	{r4, r5, pc}
 8081d32:	ea7f 5c64 	mvns.w	ip, r4, asr #21
 8081d36:	bf1a      	itte	ne
 8081d38:	4619      	movne	r1, r3
 8081d3a:	4610      	movne	r0, r2
 8081d3c:	ea7f 5c65 	mvnseq.w	ip, r5, asr #21
 8081d40:	bf1c      	itt	ne
 8081d42:	460b      	movne	r3, r1
 8081d44:	4602      	movne	r2, r0
 8081d46:	ea50 3401 	orrs.w	r4, r0, r1, lsl #12
 8081d4a:	bf06      	itte	eq
 8081d4c:	ea52 3503 	orrseq.w	r5, r2, r3, lsl #12
 8081d50:	ea91 0f03 	teqeq	r1, r3
 8081d54:	f441 2100 	orrne.w	r1, r1, #524288	; 0x80000
 8081d58:	bd30      	pop	{r4, r5, pc}
 8081d5a:	bf00      	nop

08081d5c <__aeabi_ui2d>:
 8081d5c:	f090 0f00 	teq	r0, #0
 8081d60:	bf04      	itt	eq
 8081d62:	2100      	moveq	r1, #0
 8081d64:	4770      	bxeq	lr
 8081d66:	b530      	push	{r4, r5, lr}
 8081d68:	f44f 6480 	mov.w	r4, #1024	; 0x400
 8081d6c:	f104 0432 	add.w	r4, r4, #50	; 0x32
 8081d70:	f04f 0500 	mov.w	r5, #0
 8081d74:	f04f 0100 	mov.w	r1, #0
 8081d78:	e750      	b.n	8081c1c <__adddf3+0x138>
 8081d7a:	bf00      	nop

08081d7c <__aeabi_i2d>:
 8081d7c:	f090 0f00 	teq	r0, #0
 8081d80:	bf04      	itt	eq
 8081d82:	2100      	moveq	r1, #0
 8081d84:	4770      	bxeq	lr
 8081d86:	b530      	push	{r4, r5, lr}
 8081d88:	f44f 6480 	mov.w	r4, #1024	; 0x400
 8081d8c:	f104 0432 	add.w	r4, r4, #50	; 0x32
 8081d90:	f010 4500 	ands.w	r5, r0, #2147483648	; 0x80000000
 8081d94:	bf48      	it	mi
 8081d96:	4240      	negmi	r0, r0
 8081d98:	f04f 0100 	mov.w	r1, #0
 8081d9c:	e73e      	b.n	8081c1c <__adddf3+0x138>
 8081d9e:	bf00      	nop

08081da0 <__aeabi_f2d>:
 8081da0:	0042      	lsls	r2, r0, #1
 8081da2:	ea4f 01e2 	mov.w	r1, r2, asr #3
 8081da6:	ea4f 0131 	mov.w	r1, r1, rrx
 8081daa:	ea4f 7002 	mov.w	r0, r2, lsl #28
 8081dae:	bf1f      	itttt	ne
 8081db0:	f012 437f 	andsne.w	r3, r2, #4278190080	; 0xff000000
 8081db4:	f093 4f7f 	teqne	r3, #4278190080	; 0xff000000
 8081db8:	f081 5160 	eorne.w	r1, r1, #939524096	; 0x38000000
 8081dbc:	4770      	bxne	lr
 8081dbe:	f092 0f00 	teq	r2, #0
 8081dc2:	bf14      	ite	ne
 8081dc4:	f093 4f7f 	teqne	r3, #4278190080	; 0xff000000
 8081dc8:	4770      	bxeq	lr
 8081dca:	b530      	push	{r4, r5, lr}
 8081dcc:	f44f 7460 	mov.w	r4, #896	; 0x380
 8081dd0:	f001 4500 	and.w	r5, r1, #2147483648	; 0x80000000
 8081dd4:	f021 4100 	bic.w	r1, r1, #2147483648	; 0x80000000
 8081dd8:	e720      	b.n	8081c1c <__adddf3+0x138>
 8081dda:	bf00      	nop

08081ddc <__aeabi_ul2d>:
 8081ddc:	ea50 0201 	orrs.w	r2, r0, r1
 8081de0:	bf08      	it	eq
 8081de2:	4770      	bxeq	lr
 8081de4:	b530      	push	{r4, r5, lr}
 8081de6:	f04f 0500 	mov.w	r5, #0
 8081dea:	e00a      	b.n	8081e02 <__aeabi_l2d+0x16>

08081dec <__aeabi_l2d>:
 8081dec:	ea50 0201 	orrs.w	r2, r0, r1
 8081df0:	bf08      	it	eq
 8081df2:	4770      	bxeq	lr
 8081df4:	b530      	push	{r4, r5, lr}
 8081df6:	f011 4500 	ands.w	r5, r1, #2147483648	; 0x80000000
 8081dfa:	d502      	bpl.n	8081e02 <__aeabi_l2d+0x16>
 8081dfc:	4240      	negs	r0, r0
 8081dfe:	eb61 0141 	sbc.w	r1, r1, r1, lsl #1
 8081e02:	f44f 6480 	mov.w	r4, #1024	; 0x400
 8081e06:	f104 0432 	add.w	r4, r4, #50	; 0x32
 8081e0a:	ea5f 5c91 	movs.w	ip, r1, lsr #22
 8081e0e:	f43f aedc 	beq.w	8081bca <__adddf3+0xe6>
 8081e12:	f04f 0203 	mov.w	r2, #3
 8081e16:	ea5f 0cdc 	movs.w	ip, ip, lsr #3
 8081e1a:	bf18      	it	ne
 8081e1c:	3203      	addne	r2, #3
 8081e1e:	ea5f 0cdc 	movs.w	ip, ip, lsr #3
 8081e22:	bf18      	it	ne
 8081e24:	3203      	addne	r2, #3
 8081e26:	eb02 02dc 	add.w	r2, r2, ip, lsr #3
 8081e2a:	f1c2 0320 	rsb	r3, r2, #32
 8081e2e:	fa00 fc03 	lsl.w	ip, r0, r3
 8081e32:	fa20 f002 	lsr.w	r0, r0, r2
 8081e36:	fa01 fe03 	lsl.w	lr, r1, r3
 8081e3a:	ea40 000e 	orr.w	r0, r0, lr
 8081e3e:	fa21 f102 	lsr.w	r1, r1, r2
 8081e42:	4414      	add	r4, r2
 8081e44:	e6c1      	b.n	8081bca <__adddf3+0xe6>
 8081e46:	bf00      	nop

08081e48 <__aeabi_dmul>:
 8081e48:	b570      	push	{r4, r5, r6, lr}
 8081e4a:	f04f 0cff 	mov.w	ip, #255	; 0xff
 8081e4e:	f44c 6ce0 	orr.w	ip, ip, #1792	; 0x700
 8081e52:	ea1c 5411 	ands.w	r4, ip, r1, lsr #20
 8081e56:	bf1d      	ittte	ne
 8081e58:	ea1c 5513 	andsne.w	r5, ip, r3, lsr #20
 8081e5c:	ea94 0f0c 	teqne	r4, ip
 8081e60:	ea95 0f0c 	teqne	r5, ip
 8081e64:	f000 f8de 	bleq	8082024 <__aeabi_dmul+0x1dc>
 8081e68:	442c      	add	r4, r5
 8081e6a:	ea81 0603 	eor.w	r6, r1, r3
 8081e6e:	ea21 514c 	bic.w	r1, r1, ip, lsl #21
 8081e72:	ea23 534c 	bic.w	r3, r3, ip, lsl #21
 8081e76:	ea50 3501 	orrs.w	r5, r0, r1, lsl #12
 8081e7a:	bf18      	it	ne
 8081e7c:	ea52 3503 	orrsne.w	r5, r2, r3, lsl #12
 8081e80:	f441 1180 	orr.w	r1, r1, #1048576	; 0x100000
 8081e84:	f443 1380 	orr.w	r3, r3, #1048576	; 0x100000
 8081e88:	d038      	beq.n	8081efc <__aeabi_dmul+0xb4>
 8081e8a:	fba0 ce02 	umull	ip, lr, r0, r2
 8081e8e:	f04f 0500 	mov.w	r5, #0
 8081e92:	fbe1 e502 	umlal	lr, r5, r1, r2
 8081e96:	f006 4200 	and.w	r2, r6, #2147483648	; 0x80000000
 8081e9a:	fbe0 e503 	umlal	lr, r5, r0, r3
 8081e9e:	f04f 0600 	mov.w	r6, #0
 8081ea2:	fbe1 5603 	umlal	r5, r6, r1, r3
 8081ea6:	f09c 0f00 	teq	ip, #0
 8081eaa:	bf18      	it	ne
 8081eac:	f04e 0e01 	orrne.w	lr, lr, #1
 8081eb0:	f1a4 04ff 	sub.w	r4, r4, #255	; 0xff
 8081eb4:	f5b6 7f00 	cmp.w	r6, #512	; 0x200
 8081eb8:	f564 7440 	sbc.w	r4, r4, #768	; 0x300
 8081ebc:	d204      	bcs.n	8081ec8 <__aeabi_dmul+0x80>
 8081ebe:	ea5f 0e4e 	movs.w	lr, lr, lsl #1
 8081ec2:	416d      	adcs	r5, r5
 8081ec4:	eb46 0606 	adc.w	r6, r6, r6
 8081ec8:	ea42 21c6 	orr.w	r1, r2, r6, lsl #11
 8081ecc:	ea41 5155 	orr.w	r1, r1, r5, lsr #21
 8081ed0:	ea4f 20c5 	mov.w	r0, r5, lsl #11
 8081ed4:	ea40 505e 	orr.w	r0, r0, lr, lsr #21
 8081ed8:	ea4f 2ece 	mov.w	lr, lr, lsl #11
 8081edc:	f1b4 0cfd 	subs.w	ip, r4, #253	; 0xfd
 8081ee0:	bf88      	it	hi
 8081ee2:	f5bc 6fe0 	cmphi.w	ip, #1792	; 0x700
 8081ee6:	d81e      	bhi.n	8081f26 <__aeabi_dmul+0xde>
 8081ee8:	f1be 4f00 	cmp.w	lr, #2147483648	; 0x80000000
 8081eec:	bf08      	it	eq
 8081eee:	ea5f 0e50 	movseq.w	lr, r0, lsr #1
 8081ef2:	f150 0000 	adcs.w	r0, r0, #0
 8081ef6:	eb41 5104 	adc.w	r1, r1, r4, lsl #20
 8081efa:	bd70      	pop	{r4, r5, r6, pc}
 8081efc:	f006 4600 	and.w	r6, r6, #2147483648	; 0x80000000
 8081f00:	ea46 0101 	orr.w	r1, r6, r1
 8081f04:	ea40 0002 	orr.w	r0, r0, r2
 8081f08:	ea81 0103 	eor.w	r1, r1, r3
 8081f0c:	ebb4 045c 	subs.w	r4, r4, ip, lsr #1
 8081f10:	bfc2      	ittt	gt
 8081f12:	ebd4 050c 	rsbsgt	r5, r4, ip
 8081f16:	ea41 5104 	orrgt.w	r1, r1, r4, lsl #20
 8081f1a:	bd70      	popgt	{r4, r5, r6, pc}
 8081f1c:	f441 1180 	orr.w	r1, r1, #1048576	; 0x100000
 8081f20:	f04f 0e00 	mov.w	lr, #0
 8081f24:	3c01      	subs	r4, #1
 8081f26:	f300 80ab 	bgt.w	8082080 <__aeabi_dmul+0x238>
 8081f2a:	f114 0f36 	cmn.w	r4, #54	; 0x36
 8081f2e:	bfde      	ittt	le
 8081f30:	2000      	movle	r0, #0
 8081f32:	f001 4100 	andle.w	r1, r1, #2147483648	; 0x80000000
 8081f36:	bd70      	pople	{r4, r5, r6, pc}
 8081f38:	f1c4 0400 	rsb	r4, r4, #0
 8081f3c:	3c20      	subs	r4, #32
 8081f3e:	da35      	bge.n	8081fac <__aeabi_dmul+0x164>
 8081f40:	340c      	adds	r4, #12
 8081f42:	dc1b      	bgt.n	8081f7c <__aeabi_dmul+0x134>
 8081f44:	f104 0414 	add.w	r4, r4, #20
 8081f48:	f1c4 0520 	rsb	r5, r4, #32
 8081f4c:	fa00 f305 	lsl.w	r3, r0, r5
 8081f50:	fa20 f004 	lsr.w	r0, r0, r4
 8081f54:	fa01 f205 	lsl.w	r2, r1, r5
 8081f58:	ea40 0002 	orr.w	r0, r0, r2
 8081f5c:	f001 4200 	and.w	r2, r1, #2147483648	; 0x80000000
 8081f60:	f021 4100 	bic.w	r1, r1, #2147483648	; 0x80000000
 8081f64:	eb10 70d3 	adds.w	r0, r0, r3, lsr #31
 8081f68:	fa21 f604 	lsr.w	r6, r1, r4
 8081f6c:	eb42 0106 	adc.w	r1, r2, r6
 8081f70:	ea5e 0e43 	orrs.w	lr, lr, r3, lsl #1
 8081f74:	bf08      	it	eq
 8081f76:	ea20 70d3 	biceq.w	r0, r0, r3, lsr #31
 8081f7a:	bd70      	pop	{r4, r5, r6, pc}
 8081f7c:	f1c4 040c 	rsb	r4, r4, #12
 8081f80:	f1c4 0520 	rsb	r5, r4, #32
 8081f84:	fa00 f304 	lsl.w	r3, r0, r4
 8081f88:	fa20 f005 	lsr.w	r0, r0, r5
 8081f8c:	fa01 f204 	lsl.w	r2, r1, r4
 8081f90:	ea40 0002 	orr.w	r0, r0, r2
 8081f94:	f001 4100 	and.w	r1, r1, #2147483648	; 0x80000000
 8081f98:	eb10 70d3 	adds.w	r0, r0, r3, lsr #31
 8081f9c:	f141 0100 	adc.w	r1, r1, #0
 8081fa0:	ea5e 0e43 	orrs.w	lr, lr, r3, lsl #1
 8081fa4:	bf08      	it	eq
 8081fa6:	ea20 70d3 	biceq.w	r0, r0, r3, lsr #31
 8081faa:	bd70      	pop	{r4, r5, r6, pc}
 8081fac:	f1c4 0520 	rsb	r5, r4, #32
 8081fb0:	fa00 f205 	lsl.w	r2, r0, r5
 8081fb4:	ea4e 0e02 	orr.w	lr, lr, r2
 8081fb8:	fa20 f304 	lsr.w	r3, r0, r4
 8081fbc:	fa01 f205 	lsl.w	r2, r1, r5
 8081fc0:	ea43 0302 	orr.w	r3, r3, r2
 8081fc4:	fa21 f004 	lsr.w	r0, r1, r4
 8081fc8:	f001 4100 	and.w	r1, r1, #2147483648	; 0x80000000
 8081fcc:	fa21 f204 	lsr.w	r2, r1, r4
 8081fd0:	ea20 0002 	bic.w	r0, r0, r2
 8081fd4:	eb00 70d3 	add.w	r0, r0, r3, lsr #31
 8081fd8:	ea5e 0e43 	orrs.w	lr, lr, r3, lsl #1
 8081fdc:	bf08      	it	eq
 8081fde:	ea20 70d3 	biceq.w	r0, r0, r3, lsr #31
 8081fe2:	bd70      	pop	{r4, r5, r6, pc}
 8081fe4:	f094 0f00 	teq	r4, #0
 8081fe8:	d10f      	bne.n	808200a <__aeabi_dmul+0x1c2>
 8081fea:	f001 4600 	and.w	r6, r1, #2147483648	; 0x80000000
 8081fee:	0040      	lsls	r0, r0, #1
 8081ff0:	eb41 0101 	adc.w	r1, r1, r1
 8081ff4:	f411 1f80 	tst.w	r1, #1048576	; 0x100000
 8081ff8:	bf08      	it	eq
 8081ffa:	3c01      	subeq	r4, #1
 8081ffc:	d0f7      	beq.n	8081fee <__aeabi_dmul+0x1a6>
 8081ffe:	ea41 0106 	orr.w	r1, r1, r6
 8082002:	f095 0f00 	teq	r5, #0
 8082006:	bf18      	it	ne
 8082008:	4770      	bxne	lr
 808200a:	f003 4600 	and.w	r6, r3, #2147483648	; 0x80000000
 808200e:	0052      	lsls	r2, r2, #1
 8082010:	eb43 0303 	adc.w	r3, r3, r3
 8082014:	f413 1f80 	tst.w	r3, #1048576	; 0x100000
 8082018:	bf08      	it	eq
 808201a:	3d01      	subeq	r5, #1
 808201c:	d0f7      	beq.n	808200e <__aeabi_dmul+0x1c6>
 808201e:	ea43 0306 	orr.w	r3, r3, r6
 8082022:	4770      	bx	lr
 8082024:	ea94 0f0c 	teq	r4, ip
 8082028:	ea0c 5513 	and.w	r5, ip, r3, lsr #20
 808202c:	bf18      	it	ne
 808202e:	ea95 0f0c 	teqne	r5, ip
 8082032:	d00c      	beq.n	808204e <__aeabi_dmul+0x206>
 8082034:	ea50 0641 	orrs.w	r6, r0, r1, lsl #1
 8082038:	bf18      	it	ne
 808203a:	ea52 0643 	orrsne.w	r6, r2, r3, lsl #1
 808203e:	d1d1      	bne.n	8081fe4 <__aeabi_dmul+0x19c>
 8082040:	ea81 0103 	eor.w	r1, r1, r3
 8082044:	f001 4100 	and.w	r1, r1, #2147483648	; 0x80000000
 8082048:	f04f 0000 	mov.w	r0, #0
 808204c:	bd70      	pop	{r4, r5, r6, pc}
 808204e:	ea50 0641 	orrs.w	r6, r0, r1, lsl #1
 8082052:	bf06      	itte	eq
 8082054:	4610      	moveq	r0, r2
 8082056:	4619      	moveq	r1, r3
 8082058:	ea52 0643 	orrsne.w	r6, r2, r3, lsl #1
 808205c:	d019      	beq.n	8082092 <__aeabi_dmul+0x24a>
 808205e:	ea94 0f0c 	teq	r4, ip
 8082062:	d102      	bne.n	808206a <__aeabi_dmul+0x222>
 8082064:	ea50 3601 	orrs.w	r6, r0, r1, lsl #12
 8082068:	d113      	bne.n	8082092 <__aeabi_dmul+0x24a>
 808206a:	ea95 0f0c 	teq	r5, ip
 808206e:	d105      	bne.n	808207c <__aeabi_dmul+0x234>
 8082070:	ea52 3603 	orrs.w	r6, r2, r3, lsl #12
 8082074:	bf1c      	itt	ne
 8082076:	4610      	movne	r0, r2
 8082078:	4619      	movne	r1, r3
 808207a:	d10a      	bne.n	8082092 <__aeabi_dmul+0x24a>
 808207c:	ea81 0103 	eor.w	r1, r1, r3
 8082080:	f001 4100 	and.w	r1, r1, #2147483648	; 0x80000000
 8082084:	f041 41fe 	orr.w	r1, r1, #2130706432	; 0x7f000000
 8082088:	f441 0170 	orr.w	r1, r1, #15728640	; 0xf00000
 808208c:	f04f 0000 	mov.w	r0, #0
 8082090:	bd70      	pop	{r4, r5, r6, pc}
 8082092:	f041 41fe 	orr.w	r1, r1, #2130706432	; 0x7f000000
 8082096:	f441 0178 	orr.w	r1, r1, #16252928	; 0xf80000
 808209a:	bd70      	pop	{r4, r5, r6, pc}

0808209c <__aeabi_ddiv>:
 808209c:	b570      	push	{r4, r5, r6, lr}
 808209e:	f04f 0cff 	mov.w	ip, #255	; 0xff
 80820a2:	f44c 6ce0 	orr.w	ip, ip, #1792	; 0x700
 80820a6:	ea1c 5411 	ands.w	r4, ip, r1, lsr #20
 80820aa:	bf1d      	ittte	ne
 80820ac:	ea1c 5513 	andsne.w	r5, ip, r3, lsr #20
 80820b0:	ea94 0f0c 	teqne	r4, ip
 80820b4:	ea95 0f0c 	teqne	r5, ip
 80820b8:	f000 f8a7 	bleq	808220a <__aeabi_ddiv+0x16e>
 80820bc:	eba4 0405 	sub.w	r4, r4, r5
 80820c0:	ea81 0e03 	eor.w	lr, r1, r3
 80820c4:	ea52 3503 	orrs.w	r5, r2, r3, lsl #12
 80820c8:	ea4f 3101 	mov.w	r1, r1, lsl #12
 80820cc:	f000 8088 	beq.w	80821e0 <__aeabi_ddiv+0x144>
 80820d0:	ea4f 3303 	mov.w	r3, r3, lsl #12
 80820d4:	f04f 5580 	mov.w	r5, #268435456	; 0x10000000
 80820d8:	ea45 1313 	orr.w	r3, r5, r3, lsr #4
 80820dc:	ea43 6312 	orr.w	r3, r3, r2, lsr #24
 80820e0:	ea4f 2202 	mov.w	r2, r2, lsl #8
 80820e4:	ea45 1511 	orr.w	r5, r5, r1, lsr #4
 80820e8:	ea45 6510 	orr.w	r5, r5, r0, lsr #24
 80820ec:	ea4f 2600 	mov.w	r6, r0, lsl #8
 80820f0:	f00e 4100 	and.w	r1, lr, #2147483648	; 0x80000000
 80820f4:	429d      	cmp	r5, r3
 80820f6:	bf08      	it	eq
 80820f8:	4296      	cmpeq	r6, r2
 80820fa:	f144 04fd 	adc.w	r4, r4, #253	; 0xfd
 80820fe:	f504 7440 	add.w	r4, r4, #768	; 0x300
 8082102:	d202      	bcs.n	808210a <__aeabi_ddiv+0x6e>
 8082104:	085b      	lsrs	r3, r3, #1
 8082106:	ea4f 0232 	mov.w	r2, r2, rrx
 808210a:	1ab6      	subs	r6, r6, r2
 808210c:	eb65 0503 	sbc.w	r5, r5, r3
 8082110:	085b      	lsrs	r3, r3, #1
 8082112:	ea4f 0232 	mov.w	r2, r2, rrx
 8082116:	f44f 1080 	mov.w	r0, #1048576	; 0x100000
 808211a:	f44f 2c00 	mov.w	ip, #524288	; 0x80000
 808211e:	ebb6 0e02 	subs.w	lr, r6, r2
 8082122:	eb75 0e03 	sbcs.w	lr, r5, r3
 8082126:	bf22      	ittt	cs
 8082128:	1ab6      	subcs	r6, r6, r2
 808212a:	4675      	movcs	r5, lr
 808212c:	ea40 000c 	orrcs.w	r0, r0, ip
 8082130:	085b      	lsrs	r3, r3, #1
 8082132:	ea4f 0232 	mov.w	r2, r2, rrx
 8082136:	ebb6 0e02 	subs.w	lr, r6, r2
 808213a:	eb75 0e03 	sbcs.w	lr, r5, r3
 808213e:	bf22      	ittt	cs
 8082140:	1ab6      	subcs	r6, r6, r2
 8082142:	4675      	movcs	r5, lr
 8082144:	ea40 005c 	orrcs.w	r0, r0, ip, lsr #1
 8082148:	085b      	lsrs	r3, r3, #1
 808214a:	ea4f 0232 	mov.w	r2, r2, rrx
 808214e:	ebb6 0e02 	subs.w	lr, r6, r2
 8082152:	eb75 0e03 	sbcs.w	lr, r5, r3
 8082156:	bf22      	ittt	cs
 8082158:	1ab6      	subcs	r6, r6, r2
 808215a:	4675      	movcs	r5, lr
 808215c:	ea40 009c 	orrcs.w	r0, r0, ip, lsr #2
 8082160:	085b      	lsrs	r3, r3, #1
 8082162:	ea4f 0232 	mov.w	r2, r2, rrx
 8082166:	ebb6 0e02 	subs.w	lr, r6, r2
 808216a:	eb75 0e03 	sbcs.w	lr, r5, r3
 808216e:	bf22      	ittt	cs
 8082170:	1ab6      	subcs	r6, r6, r2
 8082172:	4675      	movcs	r5, lr
 8082174:	ea40 00dc 	orrcs.w	r0, r0, ip, lsr #3
 8082178:	ea55 0e06 	orrs.w	lr, r5, r6
 808217c:	d018      	beq.n	80821b0 <__aeabi_ddiv+0x114>
 808217e:	ea4f 1505 	mov.w	r5, r5, lsl #4
 8082182:	ea45 7516 	orr.w	r5, r5, r6, lsr #28
 8082186:	ea4f 1606 	mov.w	r6, r6, lsl #4
 808218a:	ea4f 03c3 	mov.w	r3, r3, lsl #3
 808218e:	ea43 7352 	orr.w	r3, r3, r2, lsr #29
 8082192:	ea4f 02c2 	mov.w	r2, r2, lsl #3
 8082196:	ea5f 1c1c 	movs.w	ip, ip, lsr #4
 808219a:	d1c0      	bne.n	808211e <__aeabi_ddiv+0x82>
 808219c:	f411 1f80 	tst.w	r1, #1048576	; 0x100000
 80821a0:	d10b      	bne.n	80821ba <__aeabi_ddiv+0x11e>
 80821a2:	ea41 0100 	orr.w	r1, r1, r0
 80821a6:	f04f 0000 	mov.w	r0, #0
 80821aa:	f04f 4c00 	mov.w	ip, #2147483648	; 0x80000000
 80821ae:	e7b6      	b.n	808211e <__aeabi_ddiv+0x82>
 80821b0:	f411 1f80 	tst.w	r1, #1048576	; 0x100000
 80821b4:	bf04      	itt	eq
 80821b6:	4301      	orreq	r1, r0
 80821b8:	2000      	moveq	r0, #0
 80821ba:	f1b4 0cfd 	subs.w	ip, r4, #253	; 0xfd
 80821be:	bf88      	it	hi
 80821c0:	f5bc 6fe0 	cmphi.w	ip, #1792	; 0x700
 80821c4:	f63f aeaf 	bhi.w	8081f26 <__aeabi_dmul+0xde>
 80821c8:	ebb5 0c03 	subs.w	ip, r5, r3
 80821cc:	bf04      	itt	eq
 80821ce:	ebb6 0c02 	subseq.w	ip, r6, r2
 80821d2:	ea5f 0c50 	movseq.w	ip, r0, lsr #1
 80821d6:	f150 0000 	adcs.w	r0, r0, #0
 80821da:	eb41 5104 	adc.w	r1, r1, r4, lsl #20
 80821de:	bd70      	pop	{r4, r5, r6, pc}
 80821e0:	f00e 4e00 	and.w	lr, lr, #2147483648	; 0x80000000
 80821e4:	ea4e 3111 	orr.w	r1, lr, r1, lsr #12
 80821e8:	eb14 045c 	adds.w	r4, r4, ip, lsr #1
 80821ec:	bfc2      	ittt	gt
 80821ee:	ebd4 050c 	rsbsgt	r5, r4, ip
 80821f2:	ea41 5104 	orrgt.w	r1, r1, r4, lsl #20
 80821f6:	bd70      	popgt	{r4, r5, r6, pc}
 80821f8:	f441 1180 	orr.w	r1, r1, #1048576	; 0x100000
 80821fc:	f04f 0e00 	mov.w	lr, #0
 8082200:	3c01      	subs	r4, #1
 8082202:	e690      	b.n	8081f26 <__aeabi_dmul+0xde>
 8082204:	ea45 0e06 	orr.w	lr, r5, r6
 8082208:	e68d      	b.n	8081f26 <__aeabi_dmul+0xde>
 808220a:	ea0c 5513 	and.w	r5, ip, r3, lsr #20
 808220e:	ea94 0f0c 	teq	r4, ip
 8082212:	bf08      	it	eq
 8082214:	ea95 0f0c 	teqeq	r5, ip
 8082218:	f43f af3b 	beq.w	8082092 <__aeabi_dmul+0x24a>
 808221c:	ea94 0f0c 	teq	r4, ip
 8082220:	d10a      	bne.n	8082238 <__aeabi_ddiv+0x19c>
 8082222:	ea50 3401 	orrs.w	r4, r0, r1, lsl #12
 8082226:	f47f af34 	bne.w	8082092 <__aeabi_dmul+0x24a>
 808222a:	ea95 0f0c 	teq	r5, ip
 808222e:	f47f af25 	bne.w	808207c <__aeabi_dmul+0x234>
 8082232:	4610      	mov	r0, r2
 8082234:	4619      	mov	r1, r3
 8082236:	e72c      	b.n	8082092 <__aeabi_dmul+0x24a>
 8082238:	ea95 0f0c 	teq	r5, ip
 808223c:	d106      	bne.n	808224c <__aeabi_ddiv+0x1b0>
 808223e:	ea52 3503 	orrs.w	r5, r2, r3, lsl #12
 8082242:	f43f aefd 	beq.w	8082040 <__aeabi_dmul+0x1f8>
 8082246:	4610      	mov	r0, r2
 8082248:	4619      	mov	r1, r3
 808224a:	e722      	b.n	8082092 <__aeabi_dmul+0x24a>
 808224c:	ea50 0641 	orrs.w	r6, r0, r1, lsl #1
 8082250:	bf18      	it	ne
 8082252:	ea52 0643 	orrsne.w	r6, r2, r3, lsl #1
 8082256:	f47f aec5 	bne.w	8081fe4 <__aeabi_dmul+0x19c>
 808225a:	ea50 0441 	orrs.w	r4, r0, r1, lsl #1
 808225e:	f47f af0d 	bne.w	808207c <__aeabi_dmul+0x234>
 8082262:	ea52 0543 	orrs.w	r5, r2, r3, lsl #1
 8082266:	f47f aeeb 	bne.w	8082040 <__aeabi_dmul+0x1f8>
 808226a:	e712      	b.n	8082092 <__aeabi_dmul+0x24a>

0808226c <__gedf2>:
 808226c:	f04f 3cff 	mov.w	ip, #4294967295	; 0xffffffff
 8082270:	e006      	b.n	8082280 <__cmpdf2+0x4>
 8082272:	bf00      	nop

08082274 <__ledf2>:
 8082274:	f04f 0c01 	mov.w	ip, #1
 8082278:	e002      	b.n	8082280 <__cmpdf2+0x4>
 808227a:	bf00      	nop

0808227c <__cmpdf2>:
 808227c:	f04f 0c01 	mov.w	ip, #1
 8082280:	f84d cd04 	str.w	ip, [sp, #-4]!
 8082284:	ea4f 0c41 	mov.w	ip, r1, lsl #1
 8082288:	ea7f 5c6c 	mvns.w	ip, ip, asr #21
 808228c:	ea4f 0c43 	mov.w	ip, r3, lsl #1
 8082290:	bf18      	it	ne
 8082292:	ea7f 5c6c 	mvnsne.w	ip, ip, asr #21
 8082296:	d01b      	beq.n	80822d0 <__cmpdf2+0x54>
 8082298:	b001      	add	sp, #4
 808229a:	ea50 0c41 	orrs.w	ip, r0, r1, lsl #1
 808229e:	bf0c      	ite	eq
 80822a0:	ea52 0c43 	orrseq.w	ip, r2, r3, lsl #1
 80822a4:	ea91 0f03 	teqne	r1, r3
 80822a8:	bf02      	ittt	eq
 80822aa:	ea90 0f02 	teqeq	r0, r2
 80822ae:	2000      	moveq	r0, #0
 80822b0:	4770      	bxeq	lr
 80822b2:	f110 0f00 	cmn.w	r0, #0
 80822b6:	ea91 0f03 	teq	r1, r3
 80822ba:	bf58      	it	pl
 80822bc:	4299      	cmppl	r1, r3
 80822be:	bf08      	it	eq
 80822c0:	4290      	cmpeq	r0, r2
 80822c2:	bf2c      	ite	cs
 80822c4:	17d8      	asrcs	r0, r3, #31
 80822c6:	ea6f 70e3 	mvncc.w	r0, r3, asr #31
 80822ca:	f040 0001 	orr.w	r0, r0, #1
 80822ce:	4770      	bx	lr
 80822d0:	ea4f 0c41 	mov.w	ip, r1, lsl #1
 80822d4:	ea7f 5c6c 	mvns.w	ip, ip, asr #21
 80822d8:	d102      	bne.n	80822e0 <__cmpdf2+0x64>
 80822da:	ea50 3c01 	orrs.w	ip, r0, r1, lsl #12
 80822de:	d107      	bne.n	80822f0 <__cmpdf2+0x74>
 80822e0:	ea4f 0c43 	mov.w	ip, r3, lsl #1
 80822e4:	ea7f 5c6c 	mvns.w	ip, ip, asr #21
 80822e8:	d1d6      	bne.n	8082298 <__cmpdf2+0x1c>
 80822ea:	ea52 3c03 	orrs.w	ip, r2, r3, lsl #12
 80822ee:	d0d3      	beq.n	8082298 <__cmpdf2+0x1c>
 80822f0:	f85d 0b04 	ldr.w	r0, [sp], #4
 80822f4:	4770      	bx	lr
 80822f6:	bf00      	nop

080822f8 <__aeabi_cdrcmple>:
 80822f8:	4684      	mov	ip, r0
 80822fa:	4610      	mov	r0, r2
 80822fc:	4662      	mov	r2, ip
 80822fe:	468c      	mov	ip, r1
 8082300:	4619      	mov	r1, r3
 8082302:	4663      	mov	r3, ip
 8082304:	e000      	b.n	8082308 <__aeabi_cdcmpeq>
 8082306:	bf00      	nop

08082308 <__aeabi_cdcmpeq>:
 8082308:	b501      	push	{r0, lr}
 808230a:	f7ff ffb7 	bl	808227c <__cmpdf2>
 808230e:	2800      	cmp	r0, #0
 8082310:	bf48      	it	mi
 8082312:	f110 0f00 	cmnmi.w	r0, #0
 8082316:	bd01      	pop	{r0, pc}

08082318 <__aeabi_dcmpeq>:
 8082318:	f84d ed08 	str.w	lr, [sp, #-8]!
 808231c:	f7ff fff4 	bl	8082308 <__aeabi_cdcmpeq>
 8082320:	bf0c      	ite	eq
 8082322:	2001      	moveq	r0, #1
 8082324:	2000      	movne	r0, #0
 8082326:	f85d fb08 	ldr.w	pc, [sp], #8
 808232a:	bf00      	nop

0808232c <__aeabi_dcmplt>:
 808232c:	f84d ed08 	str.w	lr, [sp, #-8]!
 8082330:	f7ff ffea 	bl	8082308 <__aeabi_cdcmpeq>
 8082334:	bf34      	ite	cc
 8082336:	2001      	movcc	r0, #1
 8082338:	2000      	movcs	r0, #0
 808233a:	f85d fb08 	ldr.w	pc, [sp], #8
 808233e:	bf00      	nop

08082340 <__aeabi_dcmple>:
 8082340:	f84d ed08 	str.w	lr, [sp, #-8]!
 8082344:	f7ff ffe0 	bl	8082308 <__aeabi_cdcmpeq>
 8082348:	bf94      	ite	ls
 808234a:	2001      	movls	r0, #1
 808234c:	2000      	movhi	r0, #0
 808234e:	f85d fb08 	ldr.w	pc, [sp], #8
 8082352:	bf00      	nop

08082354 <__aeabi_dcmpge>:
 8082354:	f84d ed08 	str.w	lr, [sp, #-8]!
 8082358:	f7ff ffce 	bl	80822f8 <__aeabi_cdrcmple>
 808235c:	bf94      	ite	ls
 808235e:	2001      	movls	r0, #1
 8082360:	2000      	movhi	r0, #0
 8082362:	f85d fb08 	ldr.w	pc, [sp], #8
 8082366:	bf00      	nop

08082368 <__aeabi_dcmpgt>:
 8082368:	f84d ed08 	str.w	lr, [sp, #-8]!
 808236c:	f7ff ffc4 	bl	80822f8 <__aeabi_cdrcmple>
 8082370:	bf34      	ite	cc
 8082372:	2001      	movcc	r0, #1
 8082374:	2000      	movcs	r0, #0
 8082376:	f85d fb08 	ldr.w	pc, [sp], #8
 808237a:	bf00      	nop

0808237c <__aeabi_dcmpun>:
 808237c:	ea4f 0c41 	mov.w	ip, r1, lsl #1
 8082380:	ea7f 5c6c 	mvns.w	ip, ip, asr #21
 8082384:	d102      	bne.n	808238c <__aeabi_dcmpun+0x10>
 8082386:	ea50 3c01 	orrs.w	ip, r0, r1, lsl #12
 808238a:	d10a      	bne.n	80823a2 <__aeabi_dcmpun+0x26>
 808238c:	ea4f 0c43 	mov.w	ip, r3, lsl #1
 8082390:	ea7f 5c6c 	mvns.w	ip, ip, asr #21
 8082394:	d102      	bne.n	808239c <__aeabi_dcmpun+0x20>
 8082396:	ea52 3c03 	orrs.w	ip, r2, r3, lsl #12
 808239a:	d102      	bne.n	80823a2 <__aeabi_dcmpun+0x26>
 808239c:	f04f 0000 	mov.w	r0, #0
 80823a0:	4770      	bx	lr
 80823a2:	f04f 0001 	mov.w	r0, #1
 80823a6:	4770      	bx	lr

080823a8 <__aeabi_d2iz>:
 80823a8:	ea4f 0241 	mov.w	r2, r1, lsl #1
 80823ac:	f512 1200 	adds.w	r2, r2, #2097152	; 0x200000
 80823b0:	d215      	bcs.n	80823de <__aeabi_d2iz+0x36>
 80823b2:	d511      	bpl.n	80823d8 <__aeabi_d2iz+0x30>
 80823b4:	f46f 7378 	mvn.w	r3, #992	; 0x3e0
 80823b8:	ebb3 5262 	subs.w	r2, r3, r2, asr #21
 80823bc:	d912      	bls.n	80823e4 <__aeabi_d2iz+0x3c>
 80823be:	ea4f 23c1 	mov.w	r3, r1, lsl #11
 80823c2:	f043 4300 	orr.w	r3, r3, #2147483648	; 0x80000000
 80823c6:	ea43 5350 	orr.w	r3, r3, r0, lsr #21
 80823ca:	f011 4f00 	tst.w	r1, #2147483648	; 0x80000000
 80823ce:	fa23 f002 	lsr.w	r0, r3, r2
 80823d2:	bf18      	it	ne
 80823d4:	4240      	negne	r0, r0
 80823d6:	4770      	bx	lr
 80823d8:	f04f 0000 	mov.w	r0, #0
 80823dc:	4770      	bx	lr
 80823de:	ea50 3001 	orrs.w	r0, r0, r1, lsl #12
 80823e2:	d105      	bne.n	80823f0 <__aeabi_d2iz+0x48>
 80823e4:	f011 4000 	ands.w	r0, r1, #2147483648	; 0x80000000
 80823e8:	bf08      	it	eq
 80823ea:	f06f 4000 	mvneq.w	r0, #2147483648	; 0x80000000
 80823ee:	4770      	bx	lr
 80823f0:	f04f 0000 	mov.w	r0, #0
 80823f4:	4770      	bx	lr
 80823f6:	bf00      	nop

080823f8 <__aeabi_d2uiz>:
 80823f8:	004a      	lsls	r2, r1, #1
 80823fa:	d211      	bcs.n	8082420 <__aeabi_d2uiz+0x28>
 80823fc:	f512 1200 	adds.w	r2, r2, #2097152	; 0x200000
 8082400:	d211      	bcs.n	8082426 <__aeabi_d2uiz+0x2e>
 8082402:	d50d      	bpl.n	8082420 <__aeabi_d2uiz+0x28>
 8082404:	f46f 7378 	mvn.w	r3, #992	; 0x3e0
 8082408:	ebb3 5262 	subs.w	r2, r3, r2, asr #21
 808240c:	d40e      	bmi.n	808242c <__aeabi_d2uiz+0x34>
 808240e:	ea4f 23c1 	mov.w	r3, r1, lsl #11
 8082412:	f043 4300 	orr.w	r3, r3, #2147483648	; 0x80000000
 8082416:	ea43 5350 	orr.w	r3, r3, r0, lsr #21
 808241a:	fa23 f002 	lsr.w	r0, r3, r2
 808241e:	4770      	bx	lr
 8082420:	f04f 0000 	mov.w	r0, #0
 8082424:	4770      	bx	lr
 8082426:	ea50 3001 	orrs.w	r0, r0, r1, lsl #12
 808242a:	d102      	bne.n	8082432 <__aeabi_d2uiz+0x3a>
 808242c:	f04f 30ff 	mov.w	r0, #4294967295	; 0xffffffff
 8082430:	4770      	bx	lr
 8082432:	f04f 0000 	mov.w	r0, #0
 8082436:	4770      	bx	lr

08082438 <atol>:
 8082438:	220a      	movs	r2, #10
 808243a:	2100      	movs	r1, #0
 808243c:	f000 b8fe 	b.w	808263c <strtol>

08082440 <__cxa_atexit>:
 8082440:	b510      	push	{r4, lr}
 8082442:	4c05      	ldr	r4, [pc, #20]	; (8082458 <__cxa_atexit+0x18>)
 8082444:	4613      	mov	r3, r2
 8082446:	b12c      	cbz	r4, 8082454 <__cxa_atexit+0x14>
 8082448:	460a      	mov	r2, r1
 808244a:	4601      	mov	r1, r0
 808244c:	2002      	movs	r0, #2
 808244e:	f3af 8000 	nop.w
 8082452:	bd10      	pop	{r4, pc}
 8082454:	4620      	mov	r0, r4
 8082456:	bd10      	pop	{r4, pc}
 8082458:	00000000 	.word	0x00000000

0808245c <memcpy>:
 808245c:	b510      	push	{r4, lr}
 808245e:	1e43      	subs	r3, r0, #1
 8082460:	440a      	add	r2, r1
 8082462:	4291      	cmp	r1, r2
 8082464:	d004      	beq.n	8082470 <memcpy+0x14>
 8082466:	f811 4b01 	ldrb.w	r4, [r1], #1
 808246a:	f803 4f01 	strb.w	r4, [r3, #1]!
 808246e:	e7f8      	b.n	8082462 <memcpy+0x6>
 8082470:	bd10      	pop	{r4, pc}

08082472 <memset>:
 8082472:	4603      	mov	r3, r0
 8082474:	4402      	add	r2, r0
 8082476:	4293      	cmp	r3, r2
 8082478:	d002      	beq.n	8082480 <memset+0xe>
 808247a:	f803 1b01 	strb.w	r1, [r3], #1
 808247e:	e7fa      	b.n	8082476 <memset+0x4>
 8082480:	4770      	bx	lr
	...

08082484 <srand>:
 8082484:	b538      	push	{r3, r4, r5, lr}
 8082486:	4b12      	ldr	r3, [pc, #72]	; (80824d0 <srand+0x4c>)
 8082488:	4605      	mov	r5, r0
 808248a:	681c      	ldr	r4, [r3, #0]
 808248c:	6ba3      	ldr	r3, [r4, #56]	; 0x38
 808248e:	b9d3      	cbnz	r3, 80824c6 <srand+0x42>
 8082490:	2018      	movs	r0, #24
 8082492:	f7fe fcb1 	bl	8080df8 <malloc>
 8082496:	f243 330e 	movw	r3, #13070	; 0x330e
 808249a:	63a0      	str	r0, [r4, #56]	; 0x38
 808249c:	8003      	strh	r3, [r0, #0]
 808249e:	f64a 33cd 	movw	r3, #43981	; 0xabcd
 80824a2:	8043      	strh	r3, [r0, #2]
 80824a4:	f241 2334 	movw	r3, #4660	; 0x1234
 80824a8:	8083      	strh	r3, [r0, #4]
 80824aa:	f24e 636d 	movw	r3, #58989	; 0xe66d
 80824ae:	80c3      	strh	r3, [r0, #6]
 80824b0:	f64d 63ec 	movw	r3, #57068	; 0xdeec
 80824b4:	8103      	strh	r3, [r0, #8]
 80824b6:	2305      	movs	r3, #5
 80824b8:	8143      	strh	r3, [r0, #10]
 80824ba:	230b      	movs	r3, #11
 80824bc:	8183      	strh	r3, [r0, #12]
 80824be:	2201      	movs	r2, #1
 80824c0:	2300      	movs	r3, #0
 80824c2:	e9c0 2304 	strd	r2, r3, [r0, #16]
 80824c6:	6ba3      	ldr	r3, [r4, #56]	; 0x38
 80824c8:	2200      	movs	r2, #0
 80824ca:	611d      	str	r5, [r3, #16]
 80824cc:	615a      	str	r2, [r3, #20]
 80824ce:	bd38      	pop	{r3, r4, r5, pc}
 80824d0:	2000046c 	.word	0x2000046c

080824d4 <strcmp>:
 80824d4:	f810 2b01 	ldrb.w	r2, [r0], #1
 80824d8:	f811 3b01 	ldrb.w	r3, [r1], #1
 80824dc:	2a01      	cmp	r2, #1
 80824de:	bf28      	it	cs
 80824e0:	429a      	cmpcs	r2, r3
 80824e2:	d0f7      	beq.n	80824d4 <strcmp>
 80824e4:	1ad0      	subs	r0, r2, r3
 80824e6:	4770      	bx	lr

080824e8 <strcpy>:
 80824e8:	4603      	mov	r3, r0
 80824ea:	f811 2b01 	ldrb.w	r2, [r1], #1
 80824ee:	f803 2b01 	strb.w	r2, [r3], #1
 80824f2:	2a00      	cmp	r2, #0
 80824f4:	d1f9      	bne.n	80824ea <strcpy+0x2>
 80824f6:	4770      	bx	lr

080824f8 <strlen>:
 80824f8:	4603      	mov	r3, r0
 80824fa:	f813 2b01 	ldrb.w	r2, [r3], #1
 80824fe:	2a00      	cmp	r2, #0
 8082500:	d1fb      	bne.n	80824fa <strlen+0x2>
 8082502:	1a18      	subs	r0, r3, r0
 8082504:	3801      	subs	r0, #1
 8082506:	4770      	bx	lr

08082508 <strncpy>:
 8082508:	4603      	mov	r3, r0
 808250a:	b510      	push	{r4, lr}
 808250c:	b142      	cbz	r2, 8082520 <strncpy+0x18>
 808250e:	f811 4b01 	ldrb.w	r4, [r1], #1
 8082512:	3a01      	subs	r2, #1
 8082514:	f803 4b01 	strb.w	r4, [r3], #1
 8082518:	2c00      	cmp	r4, #0
 808251a:	d1f7      	bne.n	808250c <strncpy+0x4>
 808251c:	441a      	add	r2, r3
 808251e:	e000      	b.n	8082522 <strncpy+0x1a>
 8082520:	bd10      	pop	{r4, pc}
 8082522:	4293      	cmp	r3, r2
 8082524:	d002      	beq.n	808252c <strncpy+0x24>
 8082526:	f803 4b01 	strb.w	r4, [r3], #1
 808252a:	e7fa      	b.n	8082522 <strncpy+0x1a>
 808252c:	bd10      	pop	{r4, pc}
	...

08082530 <_strtol_r>:
 8082530:	e92d 47f0 	stmdb	sp!, {r4, r5, r6, r7, r8, r9, sl, lr}
 8082534:	460f      	mov	r7, r1
 8082536:	4680      	mov	r8, r0
 8082538:	483f      	ldr	r0, [pc, #252]	; (8082638 <_strtol_r+0x108>)
 808253a:	f8d0 9000 	ldr.w	r9, [r0]
 808253e:	463d      	mov	r5, r7
 8082540:	f815 4b01 	ldrb.w	r4, [r5], #1
 8082544:	eb09 0004 	add.w	r0, r9, r4
 8082548:	7840      	ldrb	r0, [r0, #1]
 808254a:	f000 0008 	and.w	r0, r0, #8
 808254e:	f000 06ff 	and.w	r6, r0, #255	; 0xff
 8082552:	b108      	cbz	r0, 8082558 <_strtol_r+0x28>
 8082554:	462f      	mov	r7, r5
 8082556:	e7f2      	b.n	808253e <_strtol_r+0xe>
 8082558:	2c2d      	cmp	r4, #45	; 0x2d
 808255a:	d103      	bne.n	8082564 <_strtol_r+0x34>
 808255c:	1cbd      	adds	r5, r7, #2
 808255e:	787c      	ldrb	r4, [r7, #1]
 8082560:	2601      	movs	r6, #1
 8082562:	e003      	b.n	808256c <_strtol_r+0x3c>
 8082564:	2c2b      	cmp	r4, #43	; 0x2b
 8082566:	bf04      	itt	eq
 8082568:	787c      	ldrbeq	r4, [r7, #1]
 808256a:	1cbd      	addeq	r5, r7, #2
 808256c:	b113      	cbz	r3, 8082574 <_strtol_r+0x44>
 808256e:	2b10      	cmp	r3, #16
 8082570:	d10a      	bne.n	8082588 <_strtol_r+0x58>
 8082572:	e05b      	b.n	808262c <_strtol_r+0xfc>
 8082574:	2c30      	cmp	r4, #48	; 0x30
 8082576:	d157      	bne.n	8082628 <_strtol_r+0xf8>
 8082578:	7828      	ldrb	r0, [r5, #0]
 808257a:	f000 00df 	and.w	r0, r0, #223	; 0xdf
 808257e:	2858      	cmp	r0, #88	; 0x58
 8082580:	d14d      	bne.n	808261e <_strtol_r+0xee>
 8082582:	786c      	ldrb	r4, [r5, #1]
 8082584:	2310      	movs	r3, #16
 8082586:	3502      	adds	r5, #2
 8082588:	2e00      	cmp	r6, #0
 808258a:	bf14      	ite	ne
 808258c:	f04f 4c00 	movne.w	ip, #2147483648	; 0x80000000
 8082590:	f06f 4c00 	mvneq.w	ip, #2147483648	; 0x80000000
 8082594:	fbbc faf3 	udiv	sl, ip, r3
 8082598:	2700      	movs	r7, #0
 808259a:	4638      	mov	r0, r7
 808259c:	fb03 cc1a 	mls	ip, r3, sl, ip
 80825a0:	eb09 0e04 	add.w	lr, r9, r4
 80825a4:	f89e e001 	ldrb.w	lr, [lr, #1]
 80825a8:	f01e 0f04 	tst.w	lr, #4
 80825ac:	d001      	beq.n	80825b2 <_strtol_r+0x82>
 80825ae:	3c30      	subs	r4, #48	; 0x30
 80825b0:	e00b      	b.n	80825ca <_strtol_r+0x9a>
 80825b2:	f01e 0e03 	ands.w	lr, lr, #3
 80825b6:	d01b      	beq.n	80825f0 <_strtol_r+0xc0>
 80825b8:	f1be 0f01 	cmp.w	lr, #1
 80825bc:	bf0c      	ite	eq
 80825be:	f04f 0e37 	moveq.w	lr, #55	; 0x37
 80825c2:	f04f 0e57 	movne.w	lr, #87	; 0x57
 80825c6:	ebce 0404 	rsb	r4, lr, r4
 80825ca:	42a3      	cmp	r3, r4
 80825cc:	dd10      	ble.n	80825f0 <_strtol_r+0xc0>
 80825ce:	f1b7 3fff 	cmp.w	r7, #4294967295	; 0xffffffff
 80825d2:	d00a      	beq.n	80825ea <_strtol_r+0xba>
 80825d4:	4550      	cmp	r0, sl
 80825d6:	d806      	bhi.n	80825e6 <_strtol_r+0xb6>
 80825d8:	d101      	bne.n	80825de <_strtol_r+0xae>
 80825da:	4564      	cmp	r4, ip
 80825dc:	dc03      	bgt.n	80825e6 <_strtol_r+0xb6>
 80825de:	fb03 4000 	mla	r0, r3, r0, r4
 80825e2:	2701      	movs	r7, #1
 80825e4:	e001      	b.n	80825ea <_strtol_r+0xba>
 80825e6:	f04f 37ff 	mov.w	r7, #4294967295	; 0xffffffff
 80825ea:	f815 4b01 	ldrb.w	r4, [r5], #1
 80825ee:	e7d7      	b.n	80825a0 <_strtol_r+0x70>
 80825f0:	1c7b      	adds	r3, r7, #1
 80825f2:	d10c      	bne.n	808260e <_strtol_r+0xde>
 80825f4:	2e00      	cmp	r6, #0
 80825f6:	f04f 0322 	mov.w	r3, #34	; 0x22
 80825fa:	bf14      	ite	ne
 80825fc:	f04f 4000 	movne.w	r0, #2147483648	; 0x80000000
 8082600:	f06f 4000 	mvneq.w	r0, #2147483648	; 0x80000000
 8082604:	f8c8 3000 	str.w	r3, [r8]
 8082608:	b92a      	cbnz	r2, 8082616 <_strtol_r+0xe6>
 808260a:	e8bd 87f0 	ldmia.w	sp!, {r4, r5, r6, r7, r8, r9, sl, pc}
 808260e:	b106      	cbz	r6, 8082612 <_strtol_r+0xe2>
 8082610:	4240      	negs	r0, r0
 8082612:	b172      	cbz	r2, 8082632 <_strtol_r+0x102>
 8082614:	b107      	cbz	r7, 8082618 <_strtol_r+0xe8>
 8082616:	1e69      	subs	r1, r5, #1
 8082618:	6011      	str	r1, [r2, #0]
 808261a:	e8bd 87f0 	ldmia.w	sp!, {r4, r5, r6, r7, r8, r9, sl, pc}
 808261e:	2430      	movs	r4, #48	; 0x30
 8082620:	2b00      	cmp	r3, #0
 8082622:	d1b1      	bne.n	8082588 <_strtol_r+0x58>
 8082624:	2308      	movs	r3, #8
 8082626:	e7af      	b.n	8082588 <_strtol_r+0x58>
 8082628:	230a      	movs	r3, #10
 808262a:	e7ad      	b.n	8082588 <_strtol_r+0x58>
 808262c:	2c30      	cmp	r4, #48	; 0x30
 808262e:	d0a3      	beq.n	8082578 <_strtol_r+0x48>
 8082630:	e7aa      	b.n	8082588 <_strtol_r+0x58>
 8082632:	e8bd 87f0 	ldmia.w	sp!, {r4, r5, r6, r7, r8, r9, sl, pc}
 8082636:	bf00      	nop
 8082638:	20000408 	.word	0x20000408

0808263c <strtol>:
 808263c:	4613      	mov	r3, r2
 808263e:	460a      	mov	r2, r1
 8082640:	4601      	mov	r1, r0
 8082642:	4802      	ldr	r0, [pc, #8]	; (808264c <strtol+0x10>)
 8082644:	6800      	ldr	r0, [r0, #0]
 8082646:	f7ff bf73 	b.w	8082530 <_strtol_r>
 808264a:	bf00      	nop
 808264c:	2000046c 	.word	0x2000046c

08082650 <dynalib_user>:
 8082650:	0808001d 0808005d 08080089 0808008d     ....]...........
 8082660:	00000000 72617473 00646574 61636f4c     ....started.Loca
 8082670:	6e6f6974 2c00203a 564e4900 44494c41     tion: .,.INVALID
 8082680:	44202000 2f657461 656d6954 2f00203a     .  Date/Time: ./
 8082690:	3a003000 6e002e00 61762e30 36363d6c     .0.:...n0.val=66
 80826a0:	52504700 4700434d 41474750 4e004e00     .GPRMC.GPGGA.N.N
 80826b0:	4500454e 4500454e 53004553 53004553     NE.ENE.ESE.SSE.S
 80826c0:	57535300 57535700 574e5700 574e4e00     .SSW.WSW.WNW.NNW
 80826d0:	00000000                                ....

080826d4 <_ZTVN5spark13CellularClassE>:
	...
 80826dc:	08080e2f                                /...

080826e0 <_ZTV7TwoWire>:
	...
 80826e8:	08080e87 08080ed1 08080ea9 08080e89     ................
 80826f8:	08080eb1 08080eb9 08080ec1 08080ec9     ................

08082708 <_ZTV9IPAddress>:
	...
 8082710:	08080f17 08080f09 08080f0b 66006e6c     ............ln.f
 8082720:	6f63006e 64006564 69617465 0a0d006c     n.code.detail...
 8082730:	31302500 00207530 2500205d 202c0064     .%010u .] .%d., 
 8082740:	3a292800 5b200020 646f6300 203d2065     .(): . [.code = 
 8082750:	00692500 61746564 20736c69 6200203d     .%i.details = .b
 8082760:	00647561 69726553 55006c61 65534253     aud.Serial.USBSe
 8082770:	6c616972 79740031 70006570 6d617261     rial1.type.param
 8082780:	646d6300 00646900 00646e68 6d727473     .cmd.id.hnd.strm
 8082790:	6c696600 766c0074 6461006c 6e614864     .filt.lvl.addHan
 80827a0:	72656c64 6d657200 4865766f 6c646e61     dler.removeHandl
 80827b0:	65007265 486d756e 6c646e61 00737265     er.enumHandlers.
 80827c0:	4e4f534a 65727453 6f4c6d61 6e614867     JSONStreamLogHan
 80827d0:	72656c64 70706100 6e6f6e00 72740065     dler.app.none.tr
 80827e0:	00656361 6f666e69 72617700 7265006e     ace.info.warn.er
 80827f0:	00726f72 696e6170 6c610063 616e006c     ror.panic.all.na
 8082800:	766f006e 6e690066 00000066              n.ovf.inf...

0808280c <_ZTV8SPIClass>:
	...
 8082814:	080812a1 080812a3 2b25005a 3a643330     ........Z.%+03d:
 8082824:	75323025 2d592500 252d6d25 48255464     %02u.%Y-%m-%dT%H
 8082834:	3a4d253a 7a255325 63736100 656d6974     :%M:%S%z.asctime
 8082844:	00000000                                ....

08082848 <_ZTV11USARTSerial>:
	...
 8082850:	080800af 080800b1 08081357 08080f89     ........W.......
 8082860:	0808133f 0808134b 08081345 08081351     ?...K...E...Q...
 8082870:	08081335 08081339                       5...9...

08082878 <_ZTV9USBSerial>:
	...
 8082880:	08081415 08081459 08081433 08080f89     ....Y...3.......
 8082890:	0808142d 08081417 0808141f 08081453     -...........S...
 80828a0:	08081427 08081411                       '.......

080828a8 <_ctype_>:
 80828a8:	20202000 20202020 28282020 20282828     .         ((((( 
 80828b8:	20202020 20202020 20202020 20202020                     
 80828c8:	10108820 10101010 10101010 10101010      ...............
 80828d8:	04040410 04040404 10040404 10101010     ................
 80828e8:	41411010 41414141 01010101 01010101     ..AAAAAA........
 80828f8:	01010101 01010101 01010101 10101010     ................
 8082908:	42421010 42424242 02020202 02020202     ..BBBBBB........
 8082918:	02020202 02020202 02020202 10101010     ................
 8082928:	00000020 00000000 00000000 00000000      ...............
	...

080829ac <__sf_fake_stdin>:
	...

080829cc <__sf_fake_stdout>:
	...

080829ec <__sf_fake_stderr>:
	...

08082a0c <link_const_variable_data_end>:
 8082a0c:	080804d1 	.word	0x080804d1
 8082a10:	08080b5d 	.word	0x08080b5d
 8082a14:	08080e39 	.word	0x08080e39
 8082a18:	08080f79 	.word	0x08080f79
 8082a1c:	08081285 	.word	0x08081285
 8082a20:	080812e1 	.word	0x080812e1
 8082a24:	08081321 	.word	0x08081321
 8082a28:	080817b1 	.word	0x080817b1
 8082a2c:	080817e1 	.word	0x080817e1
 8082a30:	08081849 	.word	0x08081849
 8082a34:	0808190d 	.word	0x0808190d
 8082a38:	08081991 	.word	0x08081991
 8082a3c:	08081a15 	.word	0x08081a15
